---
triple:          'arm64-apple-darwin'
binary-path:     avl_test
relocations:
  - { offsetInCU: 0x4C, offset: 0x4C, size: 0x8, addend: 0x0, symName: __ZN19AVL_SampleCase_Test10test_info_E, symObjAddr: 0xD8898, symBinAddr: 0x100058008, symSize: 0x0 }
  - { offsetInCU: 0x687, offset: 0x687, size: 0x8, addend: 0x0, symName: __ZN7testing8internal19GetNotDefaultOrNullEPFvvES2_, symObjAddr: 0x139F0, symBinAddr: 0x10001426C, symSize: 0x48 }
  - { offsetInCU: 0x76C, offset: 0x76C, size: 0x8, addend: 0x0, symName: __ZN7testing8internal11CmpHelperEQIA6_cNSt3__112basic_stringIcNS3_11char_traitsIcEENS3_9allocatorIcEEEEEENS_15AssertionResultEPKcSC_RKT_RKT0_, symObjAddr: 0x15A58, symBinAddr: 0x1000162D4, symSize: 0x6C }
  - { offsetInCU: 0x7D9, offset: 0x7D9, size: 0x8, addend: 0x0, symName: __ZN7testing8internal18CmpHelperEQFailureIA6_cNSt3__112basic_stringIcNS3_11char_traitsIcEENS3_9allocatorIcEEEEEENS_15AssertionResultEPKcSC_RKT_RKT0_, symObjAddr: 0x15B70, symBinAddr: 0x1000163EC, symSize: 0xD4 }
  - { offsetInCU: 0x846, offset: 0x846, size: 0x8, addend: 0x0, symName: __ZN7testing8internal33FormatForComparisonFailureMessageIA6_cNSt3__112basic_stringIcNS3_11char_traitsIcEENS3_9allocatorIcEEEEEES9_RKT_RKT0_, symObjAddr: 0x15C44, symBinAddr: 0x1000164C0, symSize: 0x30 }
  - { offsetInCU: 0x891, offset: 0x891, size: 0x8, addend: 0x0, symName: __ZN7testing8internal33FormatForComparisonFailureMessageINSt3__112basic_stringIcNS2_11char_traitsIcEENS2_9allocatorIcEEEEA6_cEES8_RKT_RKT0_, symObjAddr: 0x15C74, symBinAddr: 0x1000164F0, symSize: 0x30 }
  - { offsetInCU: 0x970, offset: 0x970, size: 0x8, addend: 0x0, symName: __ZN7testing8internal14UniversalPrintINSt3__112basic_stringIcNS2_11char_traitsIcEENS2_9allocatorIcEEEEEEvRKT_PNS2_13basic_ostreamIcS5_EE, symObjAddr: 0x16258, symBinAddr: 0x100016AD4, symSize: 0x2C }
  - { offsetInCU: 0x9DC, offset: 0x9DC, size: 0x8, addend: 0x0, symName: __ZN7testing8internal7PrintToERKNSt3__112basic_stringIcNS1_11char_traitsIcEENS1_9allocatorIcEEEEPNS1_13basic_ostreamIcS4_EE, symObjAddr: 0x162B0, symBinAddr: 0x100016B2C, symSize: 0x2C }
  - { offsetInCU: 0xA75, offset: 0xA75, size: 0x8, addend: 0x0, symName: __ZN7testing8internal11CmpHelperEQIiiEENS_15AssertionResultEPKcS4_RKT_RKT0_, symObjAddr: 0x193EC, symBinAddr: 0x100019C68, symSize: 0x78 }
  - { offsetInCU: 0xAE2, offset: 0xAE2, size: 0x8, addend: 0x0, symName: __ZN7testing8internal18CmpHelperEQFailureIiiEENS_15AssertionResultEPKcS4_RKT_RKT0_, symObjAddr: 0x19464, symBinAddr: 0x100019CE0, symSize: 0xD4 }
  - { offsetInCU: 0xB4F, offset: 0xB4F, size: 0x8, addend: 0x0, symName: __ZN7testing8internal33FormatForComparisonFailureMessageIiiEENSt3__112basic_stringIcNS2_11char_traitsIcEENS2_9allocatorIcEEEERKT_RKT0_, symObjAddr: 0x19538, symBinAddr: 0x100019DB4, symSize: 0x30 }
  - { offsetInCU: 0xBFA, offset: 0xBFA, size: 0x8, addend: 0x0, symName: __ZN7testing8internal14UniversalPrintIiEEvRKT_PNSt3__113basic_ostreamIcNS5_11char_traitsIcEEEE, symObjAddr: 0x19688, symBinAddr: 0x100019F04, symSize: 0x2C }
  - { offsetInCU: 0xC66, offset: 0xC66, size: 0x8, addend: 0x0, symName: __ZN7testing8internal7PrintToIiEEvRKT_PNSt3__113basic_ostreamIcNS5_11char_traitsIcEEEE, symObjAddr: 0x196E0, symBinAddr: 0x100019F5C, symSize: 0x2C }
  - { offsetInCU: 0xCA8, offset: 0xCA8, size: 0x8, addend: 0x0, symName: __ZN7testing8internal17PrintWithFallbackIiEEvRKT_PNSt3__113basic_ostreamIcNS5_11char_traitsIcEEEE, symObjAddr: 0x1970C, symBinAddr: 0x100019F88, symSize: 0x2C }
  - { offsetInCU: 0x1A04, offset: 0x1A04, size: 0x8, addend: 0x0, symName: __ZN7testing13PrintToStringIPKcEENSt3__112basic_stringIcNS3_11char_traitsIcEENS3_9allocatorIcEEEERKT_, symObjAddr: 0x15D00, symBinAddr: 0x10001657C, symSize: 0xCC }
  - { offsetInCU: 0x1A49, offset: 0x1A49, size: 0x8, addend: 0x0, symName: __ZN7testing13PrintToStringINSt3__112basic_stringIcNS1_11char_traitsIcEENS1_9allocatorIcEEEEEES7_RKT_, symObjAddr: 0x1642C, symBinAddr: 0x100016CA8, symSize: 0xC8 }
  - { offsetInCU: 0x1A8E, offset: 0x1A8E, size: 0x8, addend: 0x0, symName: __ZN7testing13PrintToStringIiEENSt3__112basic_stringIcNS1_11char_traitsIcEENS1_9allocatorIcEEEERKT_, symObjAddr: 0x19594, symBinAddr: 0x100019E10, symSize: 0xC8 }
  - { offsetInCU: 0xBBA0, offset: 0xBBA0, size: 0x8, addend: 0x0, symName: __ZNSt3__124__put_character_sequenceB8ue170006IcNS_11char_traitsIcEEEERNS_13basic_ostreamIT_T0_EES7_PKS4_m, symObjAddr: 0x6C48, symBinAddr: 0x1000074C4, symSize: 0x1EC }
  - { offsetInCU: 0x180E5, offset: 0x180E5, size: 0x8, addend: 0x0, symName: __ZNSt3__19make_pairB8ue170006IRA5_KcRA6_S1_EENS_4pairINS_18__unwrap_ref_decayIT_E4typeENS7_IT0_E4typeEEEOS8_OSB_, symObjAddr: 0xAAC, symBinAddr: 0x100001328, symSize: 0x48 }
  - { offsetInCU: 0x18EAD, offset: 0x18EAD, size: 0x8, addend: 0x0, symName: __ZNSt3__19make_pairB8ue170006IRiS1_EENS_4pairINS_18__unwrap_ref_decayIT_E4typeENS3_IT0_E4typeEEEOS4_OS7_, symObjAddr: 0x19B4, symBinAddr: 0x100002230, symSize: 0x34 }
  - { offsetInCU: 0x18FD0, offset: 0x18FD0, size: 0x8, addend: 0x0, symName: __ZNSt3__1neB8ue170006ERKNS_21__tree_const_iteratorIiPNS_11__tree_nodeIiPvEElEES7_, symObjAddr: 0x1C6C, symBinAddr: 0x1000024E8, symSize: 0x34 }
  - { offsetInCU: 0x19029, offset: 0x19029, size: 0x8, addend: 0x0, symName: __ZNSt3__1eqB8ue170006INS_9allocatorIcEEEEbRKNS_12basic_stringIcNS_11char_traitsIcEET_EES9_, symObjAddr: 0x43F8, symBinAddr: 0x100004C74, symSize: 0x148 }
  - { offsetInCU: 0x1909C, offset: 0x1909C, size: 0x8, addend: 0x0, symName: __ZNSt3__1gtB8ue170006IcNS_11char_traitsIcEENS_9allocatorIcEEEEbRKNS_12basic_stringIT_T0_T1_EESB_, symObjAddr: 0x4588, symBinAddr: 0x100004E04, symSize: 0x30 }
  - { offsetInCU: 0x190F4, offset: 0x190F4, size: 0x8, addend: 0x0, symName: __ZNSt3__1ltB8ue170006IcNS_11char_traitsIcEENS_9allocatorIcEEEEbRKNS_12basic_stringIT_T0_T1_EESB_, symObjAddr: 0x45B8, symBinAddr: 0x100004E34, symSize: 0x38 }
  - { offsetInCU: 0x1914D, offset: 0x1914D, size: 0x8, addend: 0x0, symName: __ZNSt3__112__to_addressB8ue170006IKcEEPT_S3_, symObjAddr: 0x49A0, symBinAddr: 0x10000521C, symSize: 0x14 }
  - { offsetInCU: 0x191B5, offset: 0x191B5, size: 0x8, addend: 0x0, symName: __ZNSt3__13minB8ue170006ImEERKT_S3_S3_, symObjAddr: 0x4C64, symBinAddr: 0x1000054E0, symSize: 0x2C }
  - { offsetInCU: 0x191F8, offset: 0x191F8, size: 0x8, addend: 0x0, symName: __ZNSt3__13minB8ue170006ImNS_6__lessIvvEEEERKT_S5_S5_T0_, symObjAddr: 0x4C90, symBinAddr: 0x10000550C, symSize: 0x54 }
  - { offsetInCU: 0x192C8, offset: 0x192C8, size: 0x8, addend: 0x0, symName: __ZNSt3__13maxB8ue170006IiEERKT_S3_S3_, symObjAddr: 0x5F18, symBinAddr: 0x100006794, symSize: 0x2C }
  - { offsetInCU: 0x1930B, offset: 0x1930B, size: 0x8, addend: 0x0, symName: __ZNSt3__13maxB8ue170006IiNS_6__lessIvvEEEERKT_S5_S5_T0_, symObjAddr: 0x5F44, symBinAddr: 0x1000067C0, symSize: 0x54 }
  - { offsetInCU: 0x19364, offset: 0x19364, size: 0x8, addend: 0x0, symName: __ZNSt3__1lsB8ue170006INS_11char_traitsIcEEEERNS_13basic_ostreamIcT_EES6_PKc, symObjAddr: 0x6168, symBinAddr: 0x1000069E4, symSize: 0x48 }
  - { offsetInCU: 0x193AA, offset: 0x193AA, size: 0x8, addend: 0x0, symName: __ZNSt3__14endlB8ue170006IcNS_11char_traitsIcEEEERNS_13basic_ostreamIT_T0_EES7_, symObjAddr: 0x61DC, symBinAddr: 0x100006A58, symSize: 0x58 }
  - { offsetInCU: 0x194C9, offset: 0x194C9, size: 0x8, addend: 0x0, symName: __ZNSt3__19make_pairB8ue170006IRKNS_12basic_stringIcNS_11char_traitsIcEENS_9allocatorIcEEEEhEENS_4pairINS_18__unwrap_ref_decayIT_E4typeENSA_IT0_E4typeEEEOSB_OSE_, symObjAddr: 0x6514, symBinAddr: 0x100006D90, symSize: 0x40 }
  - { offsetInCU: 0x19518, offset: 0x19518, size: 0x8, addend: 0x0, symName: __ZNSt3__1lsB8ue170006IcNS_11char_traitsIcEENS_9allocatorIcEEEERNS_13basic_ostreamIT_T0_EES9_RKNS_12basic_stringIS6_S7_T1_EE, symObjAddr: 0x668C, symBinAddr: 0x100006F08, symSize: 0x4C }
  - { offsetInCU: 0x19570, offset: 0x19570, size: 0x8, addend: 0x0, symName: __ZNSt3__1lsB8ue170006IcNS_11char_traitsIcEEEERNS_13basic_ostreamIT_T0_EES7_RKNS_8__iom_t6E, symObjAddr: 0x67B8, symBinAddr: 0x100007034, symSize: 0x40 }
  - { offsetInCU: 0x195C0, offset: 0x195C0, size: 0x8, addend: 0x0, symName: __ZNSt3__1lsB8ue170006INS_11char_traitsIcEEEERNS_13basic_ostreamIcT_EES6_RKNS_8__iom_t4IcEE, symObjAddr: 0x67F8, symBinAddr: 0x100007074, symSize: 0x40 }
  - { offsetInCU: 0x19603, offset: 0x19603, size: 0x8, addend: 0x0, symName: __ZNSt3__17setfillB8ue170006IcEENS_8__iom_t4IT_EES2_, symObjAddr: 0x6838, symBinAddr: 0x1000070B4, symSize: 0x2C }
  - { offsetInCU: 0x19637, offset: 0x19637, size: 0x8, addend: 0x0, symName: __ZNSt3__14setwB8ue170006Ei, symObjAddr: 0x6864, symBinAddr: 0x1000070E0, symSize: 0x2C }
  - { offsetInCU: 0x19666, offset: 0x19666, size: 0x8, addend: 0x0, symName: __ZNSt3__1neB8ue170006IPP4NodeINS_12basic_stringIcNS_11char_traitsIcEENS_9allocatorIcEEEES7_EEEbRKNS_11__wrap_iterIT_EESF_, symObjAddr: 0x6938, symBinAddr: 0x1000071B4, symSize: 0x34 }
  - { offsetInCU: 0x196A8, offset: 0x196A8, size: 0x8, addend: 0x0, symName: __ZNSt3__1neB8ue170006ERKNS_14__map_iteratorINS_15__tree_iteratorINS_12__value_typeINS_12basic_stringIcNS_11char_traitsIcEENS_9allocatorIcEEEEhEEPNS_11__tree_nodeIS9_PvEElEEEESH_, symObjAddr: 0x6ACC, symBinAddr: 0x100007348, symSize: 0x30 }
  - { offsetInCU: 0x196E5, offset: 0x196E5, size: 0x8, addend: 0x0, symName: __ZNSt3__1lsB8ue170006INS_11char_traitsIcEEEERNS_13basic_ostreamIcT_EES6_c, symObjAddr: 0x6B34, symBinAddr: 0x1000073B0, symSize: 0x34 }
  - { offsetInCU: 0x1972B, offset: 0x1972B, size: 0x8, addend: 0x0, symName: __ZNSt3__116__pad_and_outputB8ue170006IcNS_11char_traitsIcEEEENS_19ostreambuf_iteratorIT_T0_EES6_PKS4_S8_S8_RNS_8ios_baseES4_, symObjAddr: 0x6E84, symBinAddr: 0x100007700, symSize: 0x240 }
  - { offsetInCU: 0x197FB, offset: 0x197FB, size: 0x8, addend: 0x0, symName: __ZNSt3__112__to_addressB8ue170006IcEEPT_S2_, symObjAddr: 0x7254, symBinAddr: 0x100007AD0, symSize: 0x14 }
  - { offsetInCU: 0x19863, offset: 0x19863, size: 0x8, addend: 0x0, symName: __ZNSt3__19use_facetB8ue170006INS_5ctypeIcEEEERKT_RKNS_6localeE, symObjAddr: 0x7464, symBinAddr: 0x100007CE0, symSize: 0x2C }
  - { offsetInCU: 0x19D30, offset: 0x19D30, size: 0x8, addend: 0x0, symName: __ZNSt3__118__constexpr_strlenB8ue170006EPKc, symObjAddr: 0x74FC, symBinAddr: 0x100007D78, symSize: 0x24 }
  - { offsetInCU: 0x19D97, offset: 0x19D97, size: 0x8, addend: 0x0, symName: __ZNSt3__17launderB8ue170006IKNS_4pairIKNS_12basic_stringIcNS_11char_traitsIcEENS_9allocatorIcEEEEhEEEEPT_SC_, symObjAddr: 0x81FC, symBinAddr: 0x100008A78, symSize: 0x24 }
  - { offsetInCU: 0x19DCE, offset: 0x19DCE, size: 0x8, addend: 0x0, symName: __ZNSt3__19__launderB8ue170006IKNS_4pairIKNS_12basic_stringIcNS_11char_traitsIcEENS_9allocatorIcEEEEhEEEEPT_SC_, symObjAddr: 0x8220, symBinAddr: 0x100008A9C, symSize: 0x14 }
  - { offsetInCU: 0x19E23, offset: 0x19E23, size: 0x8, addend: 0x0, symName: __ZNSt3__117__libcpp_allocateB8ue170006Emm, symObjAddr: 0x8498, symBinAddr: 0x100008D14, symSize: 0x60 }
  - { offsetInCU: 0x19E7E, offset: 0x19E7E, size: 0x8, addend: 0x0, symName: __ZNSt3__124__is_overaligned_for_newB8ue170006Em, symObjAddr: 0x850C, symBinAddr: 0x100008D88, symSize: 0x20 }
  - { offsetInCU: 0x19EAC, offset: 0x19EAC, size: 0x8, addend: 0x0, symName: __ZNSt3__121__libcpp_operator_newB8ue170006IJmSt11align_val_tEEEPvDpT_, symObjAddr: 0x852C, symBinAddr: 0x100008DA8, symSize: 0x2C }
  - { offsetInCU: 0x19EF9, offset: 0x19EF9, size: 0x8, addend: 0x0, symName: __ZNSt3__121__libcpp_operator_newB8ue170006IJmEEEPvDpT_, symObjAddr: 0x8558, symBinAddr: 0x100008DD4, symSize: 0x24 }
  - { offsetInCU: 0x19F32, offset: 0x19F32, size: 0x8, addend: 0x0, symName: __ZNSt3__17launderB8ue170006INS_4pairIKNS_12basic_stringIcNS_11char_traitsIcEENS_9allocatorIcEEEEhEEEEPT_SB_, symObjAddr: 0x8790, symBinAddr: 0x10000900C, symSize: 0x24 }
  - { offsetInCU: 0x19F69, offset: 0x19F69, size: 0x8, addend: 0x0, symName: __ZNSt3__19__launderB8ue170006INS_4pairIKNS_12basic_stringIcNS_11char_traitsIcEENS_9allocatorIcEEEEhEEEEPT_SB_, symObjAddr: 0x87B4, symBinAddr: 0x100009030, symSize: 0x14 }
  - { offsetInCU: 0x19FA0, offset: 0x19FA0, size: 0x8, addend: 0x0, symName: __ZNSt3__127__tree_balance_after_insertB8ue170006IPNS_16__tree_node_baseIPvEEEEvT_S5_, symObjAddr: 0x883C, symBinAddr: 0x1000090B8, symSize: 0x32C }
  - { offsetInCU: 0x1A01F, offset: 0x1A01F, size: 0x8, addend: 0x0, symName: __ZNSt3__120__tree_is_left_childB8ue170006IPNS_16__tree_node_baseIPvEEEEbT_, symObjAddr: 0x8BA8, symBinAddr: 0x100009424, symSize: 0x2C }
  - { offsetInCU: 0x1A053, offset: 0x1A053, size: 0x8, addend: 0x0, symName: __ZNSt3__118__tree_left_rotateB8ue170006IPNS_16__tree_node_baseIPvEEEEvT_, symObjAddr: 0x8BD4, symBinAddr: 0x100009450, symSize: 0xD8 }
  - { offsetInCU: 0x1A095, offset: 0x1A095, size: 0x8, addend: 0x0, symName: __ZNSt3__119__tree_right_rotateB8ue170006IPNS_16__tree_node_baseIPvEEEEvT_, symObjAddr: 0x8CAC, symBinAddr: 0x100009528, symSize: 0xCC }
  - { offsetInCU: 0x1A0D7, offset: 0x1A0D7, size: 0x8, addend: 0x0, symName: __ZNSt3__119__libcpp_deallocateB8ue170006EPvmm, symObjAddr: 0x903C, symBinAddr: 0x1000098B8, symSize: 0x60 }
  - { offsetInCU: 0x1A13D, offset: 0x1A13D, size: 0x8, addend: 0x0, symName: __ZNSt3__127__do_deallocate_handle_sizeB8ue170006IJSt11align_val_tEEEvPvmDpT_, symObjAddr: 0x909C, symBinAddr: 0x100009918, symSize: 0x30 }
  - { offsetInCU: 0x1A190, offset: 0x1A190, size: 0x8, addend: 0x0, symName: __ZNSt3__127__do_deallocate_handle_sizeB8ue170006IJEEEvPvmDpT_, symObjAddr: 0x90CC, symBinAddr: 0x100009948, symSize: 0x28 }
  - { offsetInCU: 0x1A1CE, offset: 0x1A1CE, size: 0x8, addend: 0x0, symName: __ZNSt3__124__libcpp_operator_deleteB8ue170006IJPvSt11align_val_tEEEvDpT_, symObjAddr: 0x90F4, symBinAddr: 0x100009970, symSize: 0x2C }
  - { offsetInCU: 0x1A217, offset: 0x1A217, size: 0x8, addend: 0x0, symName: __ZNSt3__124__libcpp_operator_deleteB8ue170006IJPvEEEvDpT_, symObjAddr: 0x9120, symBinAddr: 0x10000999C, symSize: 0x24 }
  - { offsetInCU: 0x1A24D, offset: 0x1A24D, size: 0x8, addend: 0x0, symName: __ZNSt3__112__to_addressB8ue170006IP4NodeINS_12basic_stringIcNS_11char_traitsIcEENS_9allocatorIcEEEES7_EEEPT_SB_, symObjAddr: 0x969C, symBinAddr: 0x100009F18, symSize: 0x14 }
  - { offsetInCU: 0x1A282, offset: 0x1A282, size: 0x8, addend: 0x0, symName: __ZNSt3__13maxB8ue170006ImEERKT_S3_S3_, symObjAddr: 0x9A90, symBinAddr: 0x10000A30C, symSize: 0x2C }
  - { offsetInCU: 0x1A4B0, offset: 0x1A4B0, size: 0x8, addend: 0x0, symName: __ZNSt3__120__throw_length_errorB8ue170006EPKc, symObjAddr: 0x9B70, symBinAddr: 0x10000A3EC, symSize: 0x64 }
  - { offsetInCU: 0x1A4DB, offset: 0x1A4DB, size: 0x8, addend: 0x0, symName: __ZNSt3__13maxB8ue170006ImNS_6__lessIvvEEEERKT_S5_S5_T0_, symObjAddr: 0x9CB4, symBinAddr: 0x10000A530, symSize: 0x54 }
  - { offsetInCU: 0x1A535, offset: 0x1A535, size: 0x8, addend: 0x0, symName: __ZNSt3__119__allocate_at_leastB8ue170006INS_9allocatorIP4NodeINS_12basic_stringIcNS_11char_traitsIcEENS1_IcEEEES7_EEEEENS_19__allocation_resultINS_16allocator_traitsIT_E7pointerEEERSD_m, symObjAddr: 0x9E18, symBinAddr: 0x10000A694, symSize: 0x40 }
  - { offsetInCU: 0x1A577, offset: 0x1A577, size: 0x8, addend: 0x0, symName: __ZNSt3__142__uninitialized_allocator_move_if_noexceptB8ue170006INS_9allocatorIP4NodeINS_12basic_stringIcNS_11char_traitsIcEENS1_IcEEEES7_EEENS_16reverse_iteratorIPS9_EESD_S9_vEET1_RT_T0_SH_SE_, symObjAddr: 0xA084, symBinAddr: 0x10000A900, symSize: 0x78 }
  - { offsetInCU: 0x1A5F5, offset: 0x1A5F5, size: 0x8, addend: 0x0, symName: __ZNSt3__14swapB8ue170006IPP4NodeINS_12basic_stringIcNS_11char_traitsIcEENS_9allocatorIcEEEES7_EEENS_9enable_ifIXaasr21is_move_constructibleIT_EE5valuesr18is_move_assignableISC_EE5valueEvE4typeERSC_SF_, symObjAddr: 0xA148, symBinAddr: 0x10000A9C4, symSize: 0x3C }
  - { offsetInCU: 0x1A647, offset: 0x1A647, size: 0x8, addend: 0x0, symName: __ZNSt3__14moveB8ue170006INS_16reverse_iteratorIPP4NodeINS_12basic_stringIcNS_11char_traitsIcEENS_9allocatorIcEEEES8_EEESC_EET0_T_SE_SD_, symObjAddr: 0xA278, symBinAddr: 0x10000AAF4, symSize: 0x78 }
  - { offsetInCU: 0x1A6A1, offset: 0x1A6A1, size: 0x8, addend: 0x0, symName: __ZNSt3__16__moveB8ue170006INS_17_ClassicAlgPolicyENS_16reverse_iteratorIPP4NodeINS_12basic_stringIcNS_11char_traitsIcEENS_9allocatorIcEEEES9_EEESD_SD_EENS_4pairIT0_T2_EESF_T1_SG_, symObjAddr: 0xA2F0, symBinAddr: 0x10000AB6C, symSize: 0x64 }
  - { offsetInCU: 0x1A70D, offset: 0x1A70D, size: 0x8, addend: 0x0, symName: __ZNSt3__123__dispatch_copy_or_moveB8ue170006INS_17_ClassicAlgPolicyENS_11__move_loopIS1_EENS_14__move_trivialENS_16reverse_iteratorIPP4NodeINS_12basic_stringIcNS_11char_traitsIcEENS_9allocatorIcEEEESC_EEESG_SG_EENS_4pairIT2_T4_EESI_T3_SJ_, symObjAddr: 0xA354, symBinAddr: 0x10000ABD0, symSize: 0x64 }
  - { offsetInCU: 0x1A78B, offset: 0x1A78B, size: 0x8, addend: 0x0, symName: __ZNSt3__121__unwrap_and_dispatchB8ue170006INS_10__overloadINS_11__move_loopINS_17_ClassicAlgPolicyEEENS_14__move_trivialEEENS_16reverse_iteratorIPP4NodeINS_12basic_stringIcNS_11char_traitsIcEENS_9allocatorIcEEEESE_EEESI_SI_Li0EEENS_4pairIT0_T2_EESK_T1_SL_, symObjAddr: 0xA3B8, symBinAddr: 0x10000AC34, symSize: 0x12C }
  - { offsetInCU: 0x1A81D, offset: 0x1A81D, size: 0x8, addend: 0x0, symName: __ZNSt3__114__unwrap_rangeB8ue170006INS_16reverse_iteratorIPP4NodeINS_12basic_stringIcNS_11char_traitsIcEENS_9allocatorIcEEEES8_EEESC_EENS_4pairIT0_SE_EET_SG_, symObjAddr: 0xA4E4, symBinAddr: 0x10000AD60, symSize: 0x84 }
  - { offsetInCU: 0x1A9D7, offset: 0x1A9D7, size: 0x8, addend: 0x0, symName: __ZNSt3__113__unwrap_iterB8ue170006INS_16reverse_iteratorIPP4NodeINS_12basic_stringIcNS_11char_traitsIcEENS_9allocatorIcEEEES8_EEENS_18__unwrap_iter_implISC_Lb0EEELi0EEEDTclsrT0_8__unwrapclsr3stdE7declvalIT_EEEESG_, symObjAddr: 0xA608, symBinAddr: 0x10000AE84, symSize: 0x44 }
  - { offsetInCU: 0x1AA1A, offset: 0x1AA1A, size: 0x8, addend: 0x0, symName: __ZNSt3__19make_pairB8ue170006INS_16reverse_iteratorIPP4NodeINS_12basic_stringIcNS_11char_traitsIcEENS_9allocatorIcEEEES8_EEESC_EENS_4pairINS_18__unwrap_ref_decayIT_E4typeENSE_IT0_E4typeEEEOSF_OSI_, symObjAddr: 0xA64C, symBinAddr: 0x10000AEC8, symSize: 0x38 }
  - { offsetInCU: 0x1AA6A, offset: 0x1AA6A, size: 0x8, addend: 0x0, symName: __ZNSt3__114__rewrap_rangeB8ue170006INS_16reverse_iteratorIPP4NodeINS_12basic_stringIcNS_11char_traitsIcEENS_9allocatorIcEEEES8_EEESC_EET_SD_T0_, symObjAddr: 0xA684, symBinAddr: 0x10000AF00, symSize: 0x5C }
  - { offsetInCU: 0x1AAB6, offset: 0x1AAB6, size: 0x8, addend: 0x0, symName: __ZNSt3__113__rewrap_iterB8ue170006INS_16reverse_iteratorIPP4NodeINS_12basic_stringIcNS_11char_traitsIcEENS_9allocatorIcEEEES8_EEESC_NS_18__unwrap_iter_implISC_Lb0EEEEET_SF_T0_, symObjAddr: 0xA6E0, symBinAddr: 0x10000AF5C, symSize: 0x74 }
  - { offsetInCU: 0x1AB0B, offset: 0x1AB0B, size: 0x8, addend: 0x0, symName: __ZNSt3__1neB8ue170006IPP4NodeINS_12basic_stringIcNS_11char_traitsIcEENS_9allocatorIcEEEES7_ESA_EEbRKNS_16reverse_iteratorIT_EERKNSB_IT0_EE, symObjAddr: 0xA754, symBinAddr: 0x10000AFD0, symSize: 0x48 }
  - { offsetInCU: 0x1AC72, offset: 0x1AC72, size: 0x8, addend: 0x0, symName: __ZNSt3__116forward_as_tupleB8ue170006IJRKNS_12basic_stringIcNS_11char_traitsIcEENS_9allocatorIcEEEEEEENS_5tupleIJDpOT_EEESC_, symObjAddr: 0xADDC, symBinAddr: 0x10000B658, symSize: 0x2C }
  - { offsetInCU: 0x1ACAB, offset: 0x1ACAB, size: 0x8, addend: 0x0, symName: __ZNSt3__116forward_as_tupleB8ue170006IJEEENS_5tupleIJDpOT_EEES4_, symObjAddr: 0xAE08, symBinAddr: 0x10000B684, symSize: 0x4 }
  - { offsetInCU: 0x1ACDB, offset: 0x1ACDB, size: 0x8, addend: 0x0, symName: __ZNSt3__13getB8ue170006ILm0EJRKNS_12basic_stringIcNS_11char_traitsIcEENS_9allocatorIcEEEEEEERNS_13tuple_elementIXT_ENS_5tupleIJDpT0_EEEE4typeERSD_, symObjAddr: 0xB0A0, symBinAddr: 0x10000B91C, symSize: 0x24 }
  - { offsetInCU: 0x1AD76, offset: 0x1AD76, size: 0x8, addend: 0x0, symName: __ZNSt3__122__make_exception_guardB8ue170006INS_6vectorIP4NodeINS_12basic_stringIcNS_11char_traitsIcEENS_9allocatorIcEEEES8_ENS6_ISA_EEE16__destroy_vectorEEENS_28__exception_guard_exceptionsIT_EESF_, symObjAddr: 0xB508, symBinAddr: 0x10000BD84, symSize: 0x40 }
  - { offsetInCU: 0x1ADAA, offset: 0x1ADAA, size: 0x8, addend: 0x0, symName: __ZNSt3__130__uninitialized_allocator_copyB8ue170006INS_9allocatorIP4NodeINS_12basic_stringIcNS_11char_traitsIcEENS1_IcEEEES7_EEEPS9_SB_SB_EET2_RT_T0_T1_SC_, symObjAddr: 0xB774, symBinAddr: 0x10000BFF0, symSize: 0x80 }
  - { offsetInCU: 0x1AE48, offset: 0x1AE48, size: 0x8, addend: 0x0, symName: __ZNSt3__114__unwrap_rangeB8ue170006IPP4NodeINS_12basic_stringIcNS_11char_traitsIcEENS_9allocatorIcEEEES7_ESA_EENS_4pairIT0_SC_EET_SE_, symObjAddr: 0xB7F4, symBinAddr: 0x10000C070, symSize: 0x60 }
  - { offsetInCU: 0x1AE93, offset: 0x1AE93, size: 0x8, addend: 0x0, symName: __ZNSt3__135__uninitialized_allocator_copy_implB8ue170006INS_9allocatorIP4NodeINS_12basic_stringIcNS_11char_traitsIcEENS1_IcEEEES7_EEES9_S9_S9_LPv0EEEPT2_RT_PT0_SH_SD_, symObjAddr: 0xB854, symBinAddr: 0x10000C0D0, symSize: 0x38 }
  - { offsetInCU: 0x1AF15, offset: 0x1AF15, size: 0x8, addend: 0x0, symName: __ZNSt3__113__unwrap_iterB8ue170006IPP4NodeINS_12basic_stringIcNS_11char_traitsIcEENS_9allocatorIcEEEES7_ENS_18__unwrap_iter_implISA_Lb1EEELi0EEEDTclsrT0_8__unwrapclsr3stdE7declvalIT_EEEESE_, symObjAddr: 0xB88C, symBinAddr: 0x10000C108, symSize: 0x24 }
  - { offsetInCU: 0x1AF59, offset: 0x1AF59, size: 0x8, addend: 0x0, symName: __ZNSt3__113__rewrap_iterB8ue170006IPP4NodeINS_12basic_stringIcNS_11char_traitsIcEENS_9allocatorIcEEEES7_ESA_NS_18__unwrap_iter_implISA_Lb1EEEEET_SD_T0_, symObjAddr: 0xB8B0, symBinAddr: 0x10000C12C, symSize: 0x3C }
  - { offsetInCU: 0x1AFAD, offset: 0x1AFAD, size: 0x8, addend: 0x0, symName: __ZNSt3__19make_pairB8ue170006IPP4NodeINS_12basic_stringIcNS_11char_traitsIcEENS_9allocatorIcEEEES7_ESA_EENS_4pairINS_18__unwrap_ref_decayIT_E4typeENSC_IT0_E4typeEEEOSD_OSG_, symObjAddr: 0xB8EC, symBinAddr: 0x10000C168, symSize: 0x38 }
  - { offsetInCU: 0x1B100, offset: 0x1B100, size: 0x8, addend: 0x0, symName: __ZNSt3__14copyB8ue170006IPP4NodeINS_12basic_stringIcNS_11char_traitsIcEENS_9allocatorIcEEEES7_ESA_EET0_T_SC_SB_, symObjAddr: 0xB994, symBinAddr: 0x10000C210, symSize: 0x40 }
  - { offsetInCU: 0x1B15A, offset: 0x1B15A, size: 0x8, addend: 0x0, symName: __ZNSt3__16__copyB8ue170006INS_17_ClassicAlgPolicyEPP4NodeINS_12basic_stringIcNS_11char_traitsIcEENS_9allocatorIcEEEES8_ESB_SB_EENS_4pairIT0_T2_EESD_T1_SE_, symObjAddr: 0xB9D4, symBinAddr: 0x10000C250, symSize: 0x44 }
  - { offsetInCU: 0x1B1C6, offset: 0x1B1C6, size: 0x8, addend: 0x0, symName: __ZNSt3__123__dispatch_copy_or_moveB8ue170006INS_17_ClassicAlgPolicyENS_11__copy_loopIS1_EENS_14__copy_trivialEPP4NodeINS_12basic_stringIcNS_11char_traitsIcEENS_9allocatorIcEEEESB_ESE_SE_EENS_4pairIT2_T4_EESG_T3_SH_, symObjAddr: 0xBA18, symBinAddr: 0x10000C294, symSize: 0x44 }
  - { offsetInCU: 0x1B244, offset: 0x1B244, size: 0x8, addend: 0x0, symName: __ZNSt3__121__unwrap_and_dispatchB8ue170006INS_10__overloadINS_11__copy_loopINS_17_ClassicAlgPolicyEEENS_14__copy_trivialEEEPP4NodeINS_12basic_stringIcNS_11char_traitsIcEENS_9allocatorIcEEEESD_ESG_SG_Li0EEENS_4pairIT0_T2_EESI_T1_SJ_, symObjAddr: 0xBA5C, symBinAddr: 0x10000C2D8, symSize: 0xB4 }
  - { offsetInCU: 0x1B356, offset: 0x1B356, size: 0x8, addend: 0x0, symName: __ZNSt3__114__rewrap_rangeB8ue170006IPP4NodeINS_12basic_stringIcNS_11char_traitsIcEENS_9allocatorIcEEEES7_ESA_EET_SB_T0_, symObjAddr: 0xBB58, symBinAddr: 0x10000C3D4, symSize: 0x2C }
  - { offsetInCU: 0x1B3A2, offset: 0x1B3A2, size: 0x8, addend: 0x0, symName: __ZNSt3__119__copy_trivial_implB8ue170006IP4NodeINS_12basic_stringIcNS_11char_traitsIcEENS_9allocatorIcEEEES7_ES9_EENS_4pairIPT_PT0_EESC_SC_SE_, symObjAddr: 0xBB84, symBinAddr: 0x10000C400, symSize: 0x80 }
  - { offsetInCU: 0x1B40B, offset: 0x1B40B, size: 0x8, addend: 0x0, symName: __ZNSt3__119__constexpr_memmoveB8ue170006IP4NodeINS_12basic_stringIcNS_11char_traitsIcEENS_9allocatorIcEEEES7_ES9_Li0EEEPT_SB_PT0_NS_15__element_countE, symObjAddr: 0xBC04, symBinAddr: 0x10000C480, symSize: 0x64 }
  - { offsetInCU: 0x1B479, offset: 0x1B479, size: 0x8, addend: 0x0, symName: __ZNSt3__19make_pairB8ue170006IRPP4NodeINS_12basic_stringIcNS_11char_traitsIcEENS_9allocatorIcEEEES7_ESA_EENS_4pairINS_18__unwrap_ref_decayIT_E4typeENSD_IT0_E4typeEEEOSE_OSH_, symObjAddr: 0xBC68, symBinAddr: 0x10000C4E4, symSize: 0x38 }
  - { offsetInCU: 0x1B51C, offset: 0x1B51C, size: 0x8, addend: 0x0, symName: __ZNSt3__1eqB8ue170006IPP4NodeINS_12basic_stringIcNS_11char_traitsIcEENS_9allocatorIcEEEES7_EEEbRKNS_11__wrap_iterIT_EESF_, symObjAddr: 0xC050, symBinAddr: 0x10000C8CC, symSize: 0x48 }
  - { offsetInCU: 0x1B55E, offset: 0x1B55E, size: 0x8, addend: 0x0, symName: __ZNSt3__1neB8ue170006ERKNS_15__tree_iteratorINS_12__value_typeINS_12basic_stringIcNS_11char_traitsIcEENS_9allocatorIcEEEEhEEPNS_11__tree_nodeIS8_PvEElEESF_, symObjAddr: 0xC33C, symBinAddr: 0x10000CBB8, symSize: 0x34 }
  - { offsetInCU: 0x1B59B, offset: 0x1B59B, size: 0x8, addend: 0x0, symName: __ZNSt3__1eqB8ue170006ERKNS_15__tree_iteratorINS_12__value_typeINS_12basic_stringIcNS_11char_traitsIcEENS_9allocatorIcEEEEhEEPNS_11__tree_nodeIS8_PvEElEESF_, symObjAddr: 0xC370, symBinAddr: 0x10000CBEC, symSize: 0x30 }
  - { offsetInCU: 0x1B60C, offset: 0x1B60C, size: 0x8, addend: 0x0, symName: __ZNSt3__116__tree_next_iterB8ue170006IPNS_15__tree_end_nodeIPNS_16__tree_node_baseIPvEEEES5_EET_T0_, symObjAddr: 0xC420, symBinAddr: 0x10000CC9C, symSize: 0x80 }
  - { offsetInCU: 0x1B64A, offset: 0x1B64A, size: 0x8, addend: 0x0, symName: __ZNSt3__110__tree_minB8ue170006IPNS_16__tree_node_baseIPvEEEET_S5_, symObjAddr: 0xC4A0, symBinAddr: 0x10000CD1C, symSize: 0x40 }
  - { offsetInCU: 0x1B67E, offset: 0x1B67E, size: 0x8, addend: 0x0, symName: __ZNSt3__1neB8ue170006INS_12basic_stringIcNS_11char_traitsIcEENS_9allocatorIcEEEENS_14default_deleteIS6_EEEEbRKNS_10unique_ptrIT_T0_EEDn, symObjAddr: 0xCB14, symBinAddr: 0x10000D390, symSize: 0x2C }
  - { offsetInCU: 0x1B79D, offset: 0x1B79D, size: 0x8, addend: 0x0, symName: __ZNSt3__19make_pairB8ue170006IRKihEENS_4pairINS_18__unwrap_ref_decayIT_E4typeENS4_IT0_E4typeEEEOS5_OS8_, symObjAddr: 0xEF98, symBinAddr: 0x10000F814, symSize: 0x34 }
  - { offsetInCU: 0x1B7ED, offset: 0x1B7ED, size: 0x8, addend: 0x0, symName: __ZNSt3__1neB8ue170006IPP4NodeIiiEEEbRKNS_11__wrap_iterIT_EES9_, symObjAddr: 0xF200, symBinAddr: 0x10000FA7C, symSize: 0x34 }
  - { offsetInCU: 0x1B82F, offset: 0x1B82F, size: 0x8, addend: 0x0, symName: __ZNSt3__1neB8ue170006ERKNS_14__map_iteratorINS_15__tree_iteratorINS_12__value_typeIihEEPNS_11__tree_nodeIS3_PvEElEEEESB_, symObjAddr: 0xF394, symBinAddr: 0x10000FC10, symSize: 0x30 }
  - { offsetInCU: 0x1B86C, offset: 0x1B86C, size: 0x8, addend: 0x0, symName: __ZNSt3__17launderB8ue170006IKNS_4pairIKihEEEEPT_S6_, symObjAddr: 0x100BC, symBinAddr: 0x100010938, symSize: 0x24 }
  - { offsetInCU: 0x1B8A3, offset: 0x1B8A3, size: 0x8, addend: 0x0, symName: __ZNSt3__19__launderB8ue170006IKNS_4pairIKihEEEEPT_S6_, symObjAddr: 0x100E0, symBinAddr: 0x10001095C, symSize: 0x14 }
  - { offsetInCU: 0x1B8F8, offset: 0x1B8F8, size: 0x8, addend: 0x0, symName: __ZNSt3__17launderB8ue170006INS_4pairIKihEEEEPT_S5_, symObjAddr: 0x10544, symBinAddr: 0x100010DC0, symSize: 0x24 }
  - { offsetInCU: 0x1B92F, offset: 0x1B92F, size: 0x8, addend: 0x0, symName: __ZNSt3__19__launderB8ue170006INS_4pairIKihEEEEPT_S5_, symObjAddr: 0x10568, symBinAddr: 0x100010DE4, symSize: 0x14 }
  - { offsetInCU: 0x1B967, offset: 0x1B967, size: 0x8, addend: 0x0, symName: __ZNSt3__112__to_addressB8ue170006IP4NodeIiiEEEPT_S5_, symObjAddr: 0x10D5C, symBinAddr: 0x1000115D8, symSize: 0x14 }
  - { offsetInCU: 0x1B99C, offset: 0x1B99C, size: 0x8, addend: 0x0, symName: __ZNSt3__119__allocate_at_leastB8ue170006INS_9allocatorIP4NodeIiiEEEEENS_19__allocation_resultINS_16allocator_traitsIT_E7pointerEEERS8_m, symObjAddr: 0x11358, symBinAddr: 0x100011BD4, symSize: 0x40 }
  - { offsetInCU: 0x1B9DE, offset: 0x1B9DE, size: 0x8, addend: 0x0, symName: __ZNSt3__142__uninitialized_allocator_move_if_noexceptB8ue170006INS_9allocatorIP4NodeIiiEEENS_16reverse_iteratorIPS4_EES8_S4_vEET1_RT_T0_SC_S9_, symObjAddr: 0x115C4, symBinAddr: 0x100011E40, symSize: 0x78 }
  - { offsetInCU: 0x1BA5C, offset: 0x1BA5C, size: 0x8, addend: 0x0, symName: __ZNSt3__14swapB8ue170006IPP4NodeIiiEEENS_9enable_ifIXaasr21is_move_constructibleIT_EE5valuesr18is_move_assignableIS6_EE5valueEvE4typeERS6_S9_, symObjAddr: 0x11688, symBinAddr: 0x100011F04, symSize: 0x3C }
  - { offsetInCU: 0x1BAAE, offset: 0x1BAAE, size: 0x8, addend: 0x0, symName: __ZNSt3__14moveB8ue170006INS_16reverse_iteratorIPP4NodeIiiEEES6_EET0_T_S8_S7_, symObjAddr: 0x117B8, symBinAddr: 0x100012034, symSize: 0x78 }
  - { offsetInCU: 0x1BB08, offset: 0x1BB08, size: 0x8, addend: 0x0, symName: __ZNSt3__16__moveB8ue170006INS_17_ClassicAlgPolicyENS_16reverse_iteratorIPP4NodeIiiEEES7_S7_EENS_4pairIT0_T2_EES9_T1_SA_, symObjAddr: 0x11830, symBinAddr: 0x1000120AC, symSize: 0x64 }
  - { offsetInCU: 0x1BB74, offset: 0x1BB74, size: 0x8, addend: 0x0, symName: __ZNSt3__123__dispatch_copy_or_moveB8ue170006INS_17_ClassicAlgPolicyENS_11__move_loopIS1_EENS_14__move_trivialENS_16reverse_iteratorIPP4NodeIiiEEESA_SA_EENS_4pairIT2_T4_EESC_T3_SD_, symObjAddr: 0x11894, symBinAddr: 0x100012110, symSize: 0x64 }
  - { offsetInCU: 0x1BBF2, offset: 0x1BBF2, size: 0x8, addend: 0x0, symName: __ZNSt3__121__unwrap_and_dispatchB8ue170006INS_10__overloadINS_11__move_loopINS_17_ClassicAlgPolicyEEENS_14__move_trivialEEENS_16reverse_iteratorIPP4NodeIiiEEESC_SC_Li0EEENS_4pairIT0_T2_EESE_T1_SF_, symObjAddr: 0x118F8, symBinAddr: 0x100012174, symSize: 0x12C }
  - { offsetInCU: 0x1BC84, offset: 0x1BC84, size: 0x8, addend: 0x0, symName: __ZNSt3__114__unwrap_rangeB8ue170006INS_16reverse_iteratorIPP4NodeIiiEEES6_EENS_4pairIT0_S8_EET_SA_, symObjAddr: 0x11A24, symBinAddr: 0x1000122A0, symSize: 0x84 }
  - { offsetInCU: 0x1BDA4, offset: 0x1BDA4, size: 0x8, addend: 0x0, symName: __ZNSt3__113__unwrap_iterB8ue170006INS_16reverse_iteratorIPP4NodeIiiEEENS_18__unwrap_iter_implIS6_Lb0EEELi0EEEDTclsrT0_8__unwrapclsr3stdE7declvalIT_EEEESA_, symObjAddr: 0x11B48, symBinAddr: 0x1000123C4, symSize: 0x44 }
  - { offsetInCU: 0x1BDE7, offset: 0x1BDE7, size: 0x8, addend: 0x0, symName: __ZNSt3__19make_pairB8ue170006INS_16reverse_iteratorIPP4NodeIiiEEES6_EENS_4pairINS_18__unwrap_ref_decayIT_E4typeENS8_IT0_E4typeEEEOS9_OSC_, symObjAddr: 0x11B8C, symBinAddr: 0x100012408, symSize: 0x38 }
  - { offsetInCU: 0x1BE37, offset: 0x1BE37, size: 0x8, addend: 0x0, symName: __ZNSt3__114__rewrap_rangeB8ue170006INS_16reverse_iteratorIPP4NodeIiiEEES6_EET_S7_T0_, symObjAddr: 0x11BC4, symBinAddr: 0x100012440, symSize: 0x5C }
  - { offsetInCU: 0x1BE83, offset: 0x1BE83, size: 0x8, addend: 0x0, symName: __ZNSt3__113__rewrap_iterB8ue170006INS_16reverse_iteratorIPP4NodeIiiEEES6_NS_18__unwrap_iter_implIS6_Lb0EEEEET_S9_T0_, symObjAddr: 0x11C20, symBinAddr: 0x10001249C, symSize: 0x74 }
  - { offsetInCU: 0x1BED8, offset: 0x1BED8, size: 0x8, addend: 0x0, symName: __ZNSt3__1neB8ue170006IPP4NodeIiiES4_EEbRKNS_16reverse_iteratorIT_EERKNS5_IT0_EE, symObjAddr: 0x11C94, symBinAddr: 0x100012510, symSize: 0x48 }
  - { offsetInCU: 0x1BF8F, offset: 0x1BF8F, size: 0x8, addend: 0x0, symName: __ZNSt3__116forward_as_tupleB8ue170006IJRKiEEENS_5tupleIJDpOT_EEES6_, symObjAddr: 0x121D8, symBinAddr: 0x100012A54, symSize: 0x2C }
  - { offsetInCU: 0x1BFC8, offset: 0x1BFC8, size: 0x8, addend: 0x0, symName: __ZNSt3__13getB8ue170006ILm0EJRKiEEERNS_13tuple_elementIXT_ENS_5tupleIJDpT0_EEEE4typeERS7_, symObjAddr: 0x124A0, symBinAddr: 0x100012D1C, symSize: 0x24 }
  - { offsetInCU: 0x1C054, offset: 0x1C054, size: 0x8, addend: 0x0, symName: __ZNSt3__122__make_exception_guardB8ue170006INS_6vectorIP4NodeIiiENS_9allocatorIS4_EEE16__destroy_vectorEEENS_28__exception_guard_exceptionsIT_EESA_, symObjAddr: 0x127EC, symBinAddr: 0x100013068, symSize: 0x40 }
  - { offsetInCU: 0x1C088, offset: 0x1C088, size: 0x8, addend: 0x0, symName: __ZNSt3__130__uninitialized_allocator_copyB8ue170006INS_9allocatorIP4NodeIiiEEEPS4_S6_S6_EET2_RT_T0_T1_S7_, symObjAddr: 0x12A58, symBinAddr: 0x1000132D4, symSize: 0x80 }
  - { offsetInCU: 0x1C126, offset: 0x1C126, size: 0x8, addend: 0x0, symName: __ZNSt3__114__unwrap_rangeB8ue170006IPP4NodeIiiES4_EENS_4pairIT0_S6_EET_S8_, symObjAddr: 0x12AD8, symBinAddr: 0x100013354, symSize: 0x60 }
  - { offsetInCU: 0x1C171, offset: 0x1C171, size: 0x8, addend: 0x0, symName: __ZNSt3__135__uninitialized_allocator_copy_implB8ue170006INS_9allocatorIP4NodeIiiEEES4_S4_S4_LPv0EEEPT2_RT_PT0_SC_S8_, symObjAddr: 0x12B38, symBinAddr: 0x1000133B4, symSize: 0x38 }
  - { offsetInCU: 0x1C1F3, offset: 0x1C1F3, size: 0x8, addend: 0x0, symName: __ZNSt3__113__unwrap_iterB8ue170006IPP4NodeIiiENS_18__unwrap_iter_implIS4_Lb1EEELi0EEEDTclsrT0_8__unwrapclsr3stdE7declvalIT_EEEES8_, symObjAddr: 0x12B70, symBinAddr: 0x1000133EC, symSize: 0x24 }
  - { offsetInCU: 0x1C237, offset: 0x1C237, size: 0x8, addend: 0x0, symName: __ZNSt3__113__rewrap_iterB8ue170006IPP4NodeIiiES4_NS_18__unwrap_iter_implIS4_Lb1EEEEET_S7_T0_, symObjAddr: 0x12B94, symBinAddr: 0x100013410, symSize: 0x3C }
  - { offsetInCU: 0x1C28B, offset: 0x1C28B, size: 0x8, addend: 0x0, symName: __ZNSt3__19make_pairB8ue170006IPP4NodeIiiES4_EENS_4pairINS_18__unwrap_ref_decayIT_E4typeENS6_IT0_E4typeEEEOS7_OSA_, symObjAddr: 0x12BD0, symBinAddr: 0x10001344C, symSize: 0x38 }
  - { offsetInCU: 0x1C3DE, offset: 0x1C3DE, size: 0x8, addend: 0x0, symName: __ZNSt3__14copyB8ue170006IPP4NodeIiiES4_EET0_T_S6_S5_, symObjAddr: 0x12C78, symBinAddr: 0x1000134F4, symSize: 0x40 }
  - { offsetInCU: 0x1C438, offset: 0x1C438, size: 0x8, addend: 0x0, symName: __ZNSt3__16__copyB8ue170006INS_17_ClassicAlgPolicyEPP4NodeIiiES5_S5_EENS_4pairIT0_T2_EES7_T1_S8_, symObjAddr: 0x12CB8, symBinAddr: 0x100013534, symSize: 0x44 }
  - { offsetInCU: 0x1C4A4, offset: 0x1C4A4, size: 0x8, addend: 0x0, symName: __ZNSt3__123__dispatch_copy_or_moveB8ue170006INS_17_ClassicAlgPolicyENS_11__copy_loopIS1_EENS_14__copy_trivialEPP4NodeIiiES8_S8_EENS_4pairIT2_T4_EESA_T3_SB_, symObjAddr: 0x12CFC, symBinAddr: 0x100013578, symSize: 0x44 }
  - { offsetInCU: 0x1C522, offset: 0x1C522, size: 0x8, addend: 0x0, symName: __ZNSt3__121__unwrap_and_dispatchB8ue170006INS_10__overloadINS_11__copy_loopINS_17_ClassicAlgPolicyEEENS_14__copy_trivialEEEPP4NodeIiiESA_SA_Li0EEENS_4pairIT0_T2_EESC_T1_SD_, symObjAddr: 0x12D40, symBinAddr: 0x1000135BC, symSize: 0xB4 }
  - { offsetInCU: 0x1C5B2, offset: 0x1C5B2, size: 0x8, addend: 0x0, symName: __ZNSt3__114__rewrap_rangeB8ue170006IPP4NodeIiiES4_EET_S5_T0_, symObjAddr: 0x12E3C, symBinAddr: 0x1000136B8, symSize: 0x2C }
  - { offsetInCU: 0x1C5FE, offset: 0x1C5FE, size: 0x8, addend: 0x0, symName: __ZNSt3__119__copy_trivial_implB8ue170006IP4NodeIiiES3_EENS_4pairIPT_PT0_EES6_S6_S8_, symObjAddr: 0x12E68, symBinAddr: 0x1000136E4, symSize: 0x80 }
  - { offsetInCU: 0x1C667, offset: 0x1C667, size: 0x8, addend: 0x0, symName: __ZNSt3__119__constexpr_memmoveB8ue170006IP4NodeIiiES3_Li0EEEPT_S5_PT0_NS_15__element_countE, symObjAddr: 0x12EE8, symBinAddr: 0x100013764, symSize: 0x64 }
  - { offsetInCU: 0x1C6D5, offset: 0x1C6D5, size: 0x8, addend: 0x0, symName: __ZNSt3__19make_pairB8ue170006IRPP4NodeIiiES4_EENS_4pairINS_18__unwrap_ref_decayIT_E4typeENS7_IT0_E4typeEEEOS8_OSB_, symObjAddr: 0x12F4C, symBinAddr: 0x1000137C8, symSize: 0x38 }
  - { offsetInCU: 0x1C778, offset: 0x1C778, size: 0x8, addend: 0x0, symName: __ZNSt3__1eqB8ue170006IPP4NodeIiiEEEbRKNS_11__wrap_iterIT_EES9_, symObjAddr: 0x13334, symBinAddr: 0x100013BB0, symSize: 0x48 }
  - { offsetInCU: 0x1C7BA, offset: 0x1C7BA, size: 0x8, addend: 0x0, symName: __ZNSt3__1neB8ue170006ERKNS_15__tree_iteratorINS_12__value_typeIihEEPNS_11__tree_nodeIS2_PvEElEES9_, symObjAddr: 0x13620, symBinAddr: 0x100013E9C, symSize: 0x34 }
  - { offsetInCU: 0x1C7F7, offset: 0x1C7F7, size: 0x8, addend: 0x0, symName: __ZNSt3__1eqB8ue170006ERKNS_15__tree_iteratorINS_12__value_typeIihEEPNS_11__tree_nodeIS2_PvEElEES9_, symObjAddr: 0x13654, symBinAddr: 0x100013ED0, symSize: 0x30 }
  - { offsetInCU: 0x1C867, offset: 0x1C867, size: 0x8, addend: 0x0, symName: __ZNSt3__1eqB8ue170006INS_12basic_stringIcNS_11char_traitsIcEENS_9allocatorIcEEEENS_14default_deleteIS6_EEEEbRKNS_10unique_ptrIT_T0_EEDn, symObjAddr: 0x14B90, symBinAddr: 0x10001540C, symSize: 0x30 }
  - { offsetInCU: 0x1C8B2, offset: 0x1C8B2, size: 0x8, addend: 0x0, symName: __ZNSt3__111make_uniqueB8ue170006INS_12basic_stringIcNS_11char_traitsIcEENS_9allocatorIcEEEEJEEENS_11__unique_ifIT_E15__unique_singleEDpOT0_, symObjAddr: 0x14BC0, symBinAddr: 0x10001543C, symSize: 0x3C }
  - { offsetInCU: 0x1CA1C, offset: 0x1CA1C, size: 0x8, addend: 0x0, symName: __ZNSt3__19make_pairB8ue170006IiN7testing15AssertionResultEEENS_4pairINS_18__unwrap_ref_decayIT_E4typeENS4_IT0_E4typeEEEOS5_OS8_, symObjAddr: 0x15418, symBinAddr: 0x100015C94, symSize: 0x40 }
  - { offsetInCU: 0x1CA6B, offset: 0x1CA6B, size: 0x8, addend: 0x0, symName: __ZNSt3__19make_pairB8ue170006IiRN7testing15AssertionResultEEENS_4pairINS_18__unwrap_ref_decayIT_E4typeENS5_IT0_E4typeEEEOS6_OS9_, symObjAddr: 0x15458, symBinAddr: 0x100015CD4, symSize: 0x40 }
  - { offsetInCU: 0x1CABA, offset: 0x1CABA, size: 0x8, addend: 0x0, symName: __ZNSt3__19make_pairB8ue170006IRiN7testing15AssertionResultEEENS_4pairINS_18__unwrap_ref_decayIT_E4typeENS5_IT0_E4typeEEEOS6_OS9_, symObjAddr: 0x15498, symBinAddr: 0x100015D14, symSize: 0x40 }
  - { offsetInCU: 0x1CB09, offset: 0x1CB09, size: 0x8, addend: 0x0, symName: __ZNSt3__1eqB8ue170006IcNS_11char_traitsIcEENS_9allocatorIcEEEEbPKT_RKNS_12basic_stringIS5_T0_T1_EE, symObjAddr: 0x15AC4, symBinAddr: 0x100016340, symSize: 0xAC }
  - { offsetInCU: 0x1CB8E, offset: 0x1CB8E, size: 0x8, addend: 0x0, symName: __ZNSt3__1eqB8ue170006ERKNS_21__tree_const_iteratorIiPNS_11__tree_nodeIiPvEElEES7_, symObjAddr: 0x1936C, symBinAddr: 0x100019BE8, symSize: 0x30 }
  - { offsetInCU: 0x1D256, offset: 0x1D256, size: 0x8, addend: 0x0, symName: __ZSt28__throw_bad_array_new_lengthB8ue170006v, symObjAddr: 0x8464, symBinAddr: 0x100008CE0, symSize: 0x34 }
  - { offsetInCU: 0x1D9B6, offset: 0x1D9B6, size: 0x8, addend: 0x0, symName: __ZN29AVL_Random50InsertRemove_Test10test_info_E, symObjAddr: 0xD88A0, symBinAddr: 0x100058010, symSize: 0x0 }
  - { offsetInCU: 0x1E41E, offset: 0x1E41E, size: 0x8, addend: 0x0, symName: __Z3powB8ue170006IijENSt3__19enable_ifIXaasr3std13is_arithmeticIT_EE5valuesr3std13is_arithmeticIT0_EE5valueENS0_9__promoteIS2_S3_vEEE4type4typeES2_S3_, symObjAddr: 0x6310, symBinAddr: 0x100006B8C, symSize: 0x40 }
  - { offsetInCU: 0x1EB6B, offset: 0x1EB6B, size: 0x8, addend: 0x0, symName: __ZNSt3__16vectorIP4NodeINS_12basic_stringIcNS_11char_traitsIcEENS_9allocatorIcEEEES7_ENS5_IS9_EEE26__swap_out_circular_bufferERNS_14__split_bufferIS9_RSA_EE, symObjAddr: 0x9898, symBinAddr: 0x10000A114, symSize: 0x110 }
  - { offsetInCU: 0x1EBC2, offset: 0x1EBC2, size: 0x8, addend: 0x0, symName: __Z3powB8ue170006IimENSt3__19enable_ifIXaasr3std13is_arithmeticIT_EE5valuesr3std13is_arithmeticIT0_EE5valueENS0_9__promoteIS2_S3_vEEE4type4typeES2_S3_, symObjAddr: 0x6650, symBinAddr: 0x100006ECC, symSize: 0x3C }
  - { offsetInCU: 0x1F4B2, offset: 0x1F4B2, size: 0x8, addend: 0x0, symName: __ZNSt3__16vectorIP4NodeIiiENS_9allocatorIS3_EEE26__swap_out_circular_bufferERNS_14__split_bufferIS3_RS5_EE, symObjAddr: 0x10F58, symBinAddr: 0x1000117D4, symSize: 0x110 }
  - { offsetInCU: 0x21C4F, offset: 0x21C4F, size: 0x8, addend: 0x0, symName: __ZNSt3__112basic_stringIcNS_11char_traitsIcEENS_9allocatorIcEEEC1B8ue170006ILi0EEEPKc, symObjAddr: 0x0, symBinAddr: 0x10000087C, symSize: 0x34 }
  - { offsetInCU: 0x21C8E, offset: 0x21C8E, size: 0x8, addend: 0x0, symName: __ZN7testing8internal12CodeLocationC1ENSt3__112basic_stringIcNS2_11char_traitsIcEENS2_9allocatorIcEEEEi, symObjAddr: 0x34, symBinAddr: 0x1000008B0, symSize: 0x3C }
  - { offsetInCU: 0x21CD7, offset: 0x21CD7, size: 0x8, addend: 0x0, symName: __ZN7testing8internal16SuiteApiResolverINS_4TestEE19GetSetUpCaseOrSuiteEPKci, symObjAddr: 0x70, symBinAddr: 0x1000008EC, symSize: 0x184 }
  - { offsetInCU: 0x21D28, offset: 0x21D28, size: 0x8, addend: 0x0, symName: __ZN7testing8internal16SuiteApiResolverINS_4TestEE22GetTearDownCaseOrSuiteEPKci, symObjAddr: 0x1F4, symBinAddr: 0x100000A70, symSize: 0x178 }
  - { offsetInCU: 0x21D7E, offset: 0x21D7E, size: 0x8, addend: 0x0, symName: __ZN7testing8internal15TestFactoryImplI19AVL_SampleCase_TestEC1Ev, symObjAddr: 0x36C, symBinAddr: 0x100000BE8, symSize: 0x2C }
  - { offsetInCU: 0x21DAB, offset: 0x21DAB, size: 0x8, addend: 0x0, symName: __ZN7testing8internal12CodeLocationD1Ev, symObjAddr: 0x398, symBinAddr: 0x100000C14, symSize: 0x2C }
  - { offsetInCU: 0x21DD8, offset: 0x21DD8, size: 0x8, addend: 0x0, symName: __ZN19AVL_SampleCase_Test8TestBodyEv, symObjAddr: 0x3C4, symBinAddr: 0x100000C40, symSize: 0x358 }
  - { offsetInCU: 0x22274, offset: 0x22274, size: 0x8, addend: 0x0, symName: __ZN7AVLTreeINSt3__112basic_stringIcNS0_11char_traitsIcEENS0_9allocatorIcEEEES6_EC1Ev, symObjAddr: 0x71C, symBinAddr: 0x100000F98, symSize: 0x2C }
  - { offsetInCU: 0x222A0, offset: 0x222A0, size: 0x8, addend: 0x0, symName: __ZN7AVLTreeINSt3__112basic_stringIcNS0_11char_traitsIcEENS0_9allocatorIcEEEES6_E6insertERKNS0_4pairIKS6_S6_EE, symObjAddr: 0x748, symBinAddr: 0x100000FC4, symSize: 0x364 }
  - { offsetInCU: 0x2231E, offset: 0x2231E, size: 0x8, addend: 0x0, symName: __ZNSt3__14pairIKNS_12basic_stringIcNS_11char_traitsIcEENS_9allocatorIcEEEES6_EC1B8ue170006IPKcSB_LPv0EEEONS0_IT_T0_EE, symObjAddr: 0xAF4, symBinAddr: 0x100001370, symSize: 0x34 }
  - { offsetInCU: 0x2236F, offset: 0x2236F, size: 0x8, addend: 0x0, symName: __ZNSt3__14pairIKNS_12basic_stringIcNS_11char_traitsIcEENS_9allocatorIcEEEES6_ED1Ev, symObjAddr: 0xB28, symBinAddr: 0x1000013A4, symSize: 0x2C }
  - { offsetInCU: 0x2239B, offset: 0x2239B, size: 0x8, addend: 0x0, symName: __Z9verifyAVLINSt3__112basic_stringIcNS0_11char_traitsIcEENS0_9allocatorIcEEEES6_EN7testing15AssertionResultER7AVLTreeIT_T0_E, symObjAddr: 0xB54, symBinAddr: 0x1000013D0, symSize: 0x1CC }
  - { offsetInCU: 0x223F8, offset: 0x223F8, size: 0x8, addend: 0x0, symName: __ZNK7testing15AssertionResultcvbEv, symObjAddr: 0xD20, symBinAddr: 0x10000159C, symSize: 0x1C }
  - { offsetInCU: 0x2241E, offset: 0x2241E, size: 0x8, addend: 0x0, symName: __ZNKSt3__112basic_stringIcNS_11char_traitsIcEENS_9allocatorIcEEE5c_strB8ue170006Ev, symObjAddr: 0xD3C, symBinAddr: 0x1000015B8, symSize: 0x24 }
  - { offsetInCU: 0x22444, offset: 0x22444, size: 0x8, addend: 0x0, symName: __ZN7testing7MessageD1Ev, symObjAddr: 0xD60, symBinAddr: 0x1000015DC, symSize: 0x2C }
  - { offsetInCU: 0x22470, offset: 0x22470, size: 0x8, addend: 0x0, symName: __ZN7testing15AssertionResultD1Ev, symObjAddr: 0xD8C, symBinAddr: 0x100001608, symSize: 0x2C }
  - { offsetInCU: 0x224B5, offset: 0x224B5, size: 0x8, addend: 0x0, symName: __ZN7testing8internal8EqHelper7CompareIA6_cNSt3__112basic_stringIcNS4_11char_traitsIcEENS4_9allocatorIcEEEELPv0EEENS_15AssertionResultEPKcSE_RKT_RKT0_, symObjAddr: 0xDB8, symBinAddr: 0x100001634, symSize: 0x44 }
  - { offsetInCU: 0x2251E, offset: 0x2251E, size: 0x8, addend: 0x0, symName: __ZNK16BinarySearchTreeINSt3__112basic_stringIcNS0_11char_traitsIcEENS0_9allocatorIcEEEES6_E4findERKS6_, symObjAddr: 0xDFC, symBinAddr: 0x100001678, symSize: 0x40 }
  - { offsetInCU: 0x22572, offset: 0x22572, size: 0x8, addend: 0x0, symName: __ZNK16BinarySearchTreeINSt3__112basic_stringIcNS0_11char_traitsIcEENS0_9allocatorIcEEEES6_E8iteratorptEv, symObjAddr: 0xE3C, symBinAddr: 0x1000016B8, symSize: 0x28 }
  - { offsetInCU: 0x2259A, offset: 0x2259A, size: 0x8, addend: 0x0, symName: __ZNK7testing15AssertionResult15failure_messageEv, symObjAddr: 0xE64, symBinAddr: 0x1000016E0, symSize: 0x24 }
  - { offsetInCU: 0x225C0, offset: 0x225C0, size: 0x8, addend: 0x0, symName: __ZN7AVLTreeINSt3__112basic_stringIcNS0_11char_traitsIcEENS0_9allocatorIcEEEES6_ED1Ev, symObjAddr: 0xE88, symBinAddr: 0x100001704, symSize: 0x2C }
  - { offsetInCU: 0x225F1, offset: 0x225F1, size: 0x8, addend: 0x0, symName: __ZN7testing8internal15TestFactoryImplI29AVL_Random50InsertRemove_TestEC1Ev, symObjAddr: 0xEB4, symBinAddr: 0x100001730, symSize: 0x2C }
  - { offsetInCU: 0x2261E, offset: 0x2261E, size: 0x8, addend: 0x0, symName: __ZN29AVL_Random50InsertRemove_Test8TestBodyEv, symObjAddr: 0xEE0, symBinAddr: 0x10000175C, symSize: 0x6F0 }
  - { offsetInCU: 0x22B5F, offset: 0x22B5F, size: 0x8, addend: 0x0, symName: __ZN7AVLTreeIiiEC1Ev, symObjAddr: 0x15D0, symBinAddr: 0x100001E4C, symSize: 0x2C }
  - { offsetInCU: 0x22CBE, offset: 0x22CBE, size: 0x8, addend: 0x0, symName: __ZNSt3__13setIiNS_4lessIiEENS_9allocatorIiEEEC1B8ue170006Ev, symObjAddr: 0x15FC, symBinAddr: 0x100001E78, symSize: 0x2C }
  - { offsetInCU: 0x22CE8, offset: 0x22CE8, size: 0x8, addend: 0x0, symName: __ZN7AVLTreeIiiE6insertERKNSt3__14pairIKiiEE, symObjAddr: 0x1628, symBinAddr: 0x100001EA4, symSize: 0x38C }
  - { offsetInCU: 0x22D66, offset: 0x22D66, size: 0x8, addend: 0x0, symName: __ZNSt3__14pairIKiiEC1B8ue170006IiiLPv0EEEONS0_IT_T0_EE, symObjAddr: 0x19E8, symBinAddr: 0x100002264, symSize: 0x34 }
  - { offsetInCU: 0x22DB7, offset: 0x22DB7, size: 0x8, addend: 0x0, symName: __ZNSt3__13setIiNS_4lessIiEENS_9allocatorIiEEE6insertB8ue170006ERKi, symObjAddr: 0x1A1C, symBinAddr: 0x100002298, symSize: 0x4C }
  - { offsetInCU: 0x22DEC, offset: 0x22DEC, size: 0x8, addend: 0x0, symName: __Z9verifyAVLIiiEN7testing15AssertionResultER7AVLTreeIT_T0_E, symObjAddr: 0x1A68, symBinAddr: 0x1000022E4, symSize: 0x1CC }
  - { offsetInCU: 0x22E49, offset: 0x22E49, size: 0x8, addend: 0x0, symName: __ZNSt3__13setIiNS_4lessIiEENS_9allocatorIiEEE5beginB8ue170006Ev, symObjAddr: 0x1C34, symBinAddr: 0x1000024B0, symSize: 0x38 }
  - { offsetInCU: 0x22E6F, offset: 0x22E6F, size: 0x8, addend: 0x0, symName: __ZNSt3__13setIiNS_4lessIiEENS_9allocatorIiEEE3endB8ue170006Ev, symObjAddr: 0x1CA0, symBinAddr: 0x10000251C, symSize: 0x38 }
  - { offsetInCU: 0x22E95, offset: 0x22E95, size: 0x8, addend: 0x0, symName: __ZN7testing8internal8EqHelper7CompareIiiLPv0EEENS_15AssertionResultEPKcS6_RKT_RKT0_, symObjAddr: 0x1CD8, symBinAddr: 0x100002554, symSize: 0x44 }
  - { offsetInCU: 0x22EFE, offset: 0x22EFE, size: 0x8, addend: 0x0, symName: __ZNKSt3__121__tree_const_iteratorIiPNS_11__tree_nodeIiPvEElEdeB8ue170006Ev, symObjAddr: 0x1D1C, symBinAddr: 0x100002598, symSize: 0x28 }
  - { offsetInCU: 0x22F24, offset: 0x22F24, size: 0x8, addend: 0x0, symName: __ZNK16BinarySearchTreeIiiE4findERKi, symObjAddr: 0x1D44, symBinAddr: 0x1000025C0, symSize: 0x40 }
  - { offsetInCU: 0x22F78, offset: 0x22F78, size: 0x8, addend: 0x0, symName: __ZNK16BinarySearchTreeIiiE8iteratorptEv, symObjAddr: 0x1D84, symBinAddr: 0x100002600, symSize: 0x28 }
  - { offsetInCU: 0x22FA0, offset: 0x22FA0, size: 0x8, addend: 0x0, symName: __ZNSt3__121__tree_const_iteratorIiPNS_11__tree_nodeIiPvEElEppB8ue170006Ei, symObjAddr: 0x1DAC, symBinAddr: 0x100002628, symSize: 0x34 }
  - { offsetInCU: 0x22FE0, offset: 0x22FE0, size: 0x8, addend: 0x0, symName: __ZN7AVLTreeIiiE6removeERKi, symObjAddr: 0x1DE0, symBinAddr: 0x10000265C, symSize: 0x34C }
  - { offsetInCU: 0x23042, offset: 0x23042, size: 0x8, addend: 0x0, symName: __ZNK16BinarySearchTreeIiiE5emptyEv, symObjAddr: 0x212C, symBinAddr: 0x1000029A8, symSize: 0x24 }
  - { offsetInCU: 0x23075, offset: 0x23075, size: 0x8, addend: 0x0, symName: __ZN7testing15AssertionResultC1IbEERKT_PNSt3__19enable_ifIXntsr3std14is_convertibleIS2_S0_EE5valueEvE4typeE, symObjAddr: 0x2150, symBinAddr: 0x1000029CC, symSize: 0x3C }
  - { offsetInCU: 0x230C1, offset: 0x230C1, size: 0x8, addend: 0x0, symName: __ZNSt3__13setIiNS_4lessIiEENS_9allocatorIiEEED1B8ue170006Ev, symObjAddr: 0x218C, symBinAddr: 0x100002A08, symSize: 0x2C }
  - { offsetInCU: 0x230EB, offset: 0x230EB, size: 0x8, addend: 0x0, symName: __ZN7AVLTreeIiiED1Ev, symObjAddr: 0x21B8, symBinAddr: 0x100002A34, symSize: 0x2C }
  - { offsetInCU: 0x23117, offset: 0x23117, size: 0x8, addend: 0x0, symName: __ZN19AVL_SampleCase_TestD1Ev, symObjAddr: 0x21E4, symBinAddr: 0x100002A60, symSize: 0x2C }
  - { offsetInCU: 0x23141, offset: 0x23141, size: 0x8, addend: 0x0, symName: __ZN19AVL_SampleCase_TestD0Ev, symObjAddr: 0x2210, symBinAddr: 0x100002A8C, symSize: 0x30 }
  - { offsetInCU: 0x2316B, offset: 0x2316B, size: 0x8, addend: 0x0, symName: __ZN7testing4Test5SetupEv, symObjAddr: 0x2240, symBinAddr: 0x100002ABC, symSize: 0x14 }
  - { offsetInCU: 0x23191, offset: 0x23191, size: 0x8, addend: 0x0, symName: __ZN29AVL_Random50InsertRemove_TestD1Ev, symObjAddr: 0x2254, symBinAddr: 0x100002AD0, symSize: 0x2C }
  - { offsetInCU: 0x231BB, offset: 0x231BB, size: 0x8, addend: 0x0, symName: __ZN29AVL_Random50InsertRemove_TestD0Ev, symObjAddr: 0x2280, symBinAddr: 0x100002AFC, symSize: 0x30 }
  - { offsetInCU: 0x231E5, offset: 0x231E5, size: 0x8, addend: 0x0, symName: __ZN7testing8internal12CodeLocationC2ENSt3__112basic_stringIcNS2_11char_traitsIcEENS2_9allocatorIcEEEEi, symObjAddr: 0x22B0, symBinAddr: 0x100002B2C, symSize: 0x40 }
  - { offsetInCU: 0x2322E, offset: 0x2322E, size: 0x8, addend: 0x0, symName: __ZNSt3__112basic_stringIcNS_11char_traitsIcEENS_9allocatorIcEEEC1B8ue170006EOS5_, symObjAddr: 0x22F0, symBinAddr: 0x100002B6C, symSize: 0x34 }
  - { offsetInCU: 0x23267, offset: 0x23267, size: 0x8, addend: 0x0, symName: __ZNSt3__112basic_stringIcNS_11char_traitsIcEENS_9allocatorIcEEEC2B8ue170006EOS5_, symObjAddr: 0x2324, symBinAddr: 0x100002BA0, symSize: 0x50 }
  - { offsetInCU: 0x232A0, offset: 0x232A0, size: 0x8, addend: 0x0, symName: __ZNSt3__112basic_stringIcNS_11char_traitsIcEENS_9allocatorIcEEE14__default_initB8ue170006Ev, symObjAddr: 0x2374, symBinAddr: 0x100002BF0, symSize: 0x40 }
  - { offsetInCU: 0x232C6, offset: 0x232C6, size: 0x8, addend: 0x0, symName: __ZNSt3__117__compressed_pairINS_12basic_stringIcNS_11char_traitsIcEENS_9allocatorIcEEE5__repES5_E5firstB8ue170006Ev, symObjAddr: 0x23C0, symBinAddr: 0x100002C3C, symSize: 0x24 }
  - { offsetInCU: 0x232EC, offset: 0x232EC, size: 0x8, addend: 0x0, symName: __ZNSt3__122__compressed_pair_elemINS_12basic_stringIcNS_11char_traitsIcEENS_9allocatorIcEEE5__repELi0ELb0EE5__getB8ue170006Ev, symObjAddr: 0x23E4, symBinAddr: 0x100002C60, symSize: 0x14 }
  - { offsetInCU: 0x23312, offset: 0x23312, size: 0x8, addend: 0x0, symName: __ZN7testing8internal15TestFactoryImplI19AVL_SampleCase_TestEC2Ev, symObjAddr: 0x23F8, symBinAddr: 0x100002C74, symSize: 0x44 }
  - { offsetInCU: 0x2333F, offset: 0x2333F, size: 0x8, addend: 0x0, symName: __ZN7testing8internal15TestFactoryBaseC2Ev, symObjAddr: 0x243C, symBinAddr: 0x100002CB8, symSize: 0x24 }
  - { offsetInCU: 0x23369, offset: 0x23369, size: 0x8, addend: 0x0, symName: __ZN7testing8internal15TestFactoryImplI19AVL_SampleCase_TestED1Ev, symObjAddr: 0x2460, symBinAddr: 0x100002CDC, symSize: 0x2C }
  - { offsetInCU: 0x23396, offset: 0x23396, size: 0x8, addend: 0x0, symName: __ZN7testing8internal15TestFactoryImplI19AVL_SampleCase_TestED0Ev, symObjAddr: 0x248C, symBinAddr: 0x100002D08, symSize: 0x30 }
  - { offsetInCU: 0x233C3, offset: 0x233C3, size: 0x8, addend: 0x0, symName: __ZN7testing8internal15TestFactoryImplI19AVL_SampleCase_TestE10CreateTestEv, symObjAddr: 0x24BC, symBinAddr: 0x100002D38, symSize: 0x58 }
  - { offsetInCU: 0x233E9, offset: 0x233E9, size: 0x8, addend: 0x0, symName: __ZN7testing8internal15TestFactoryBaseD1Ev, symObjAddr: 0x2514, symBinAddr: 0x100002D90, symSize: 0x14 }
  - { offsetInCU: 0x23413, offset: 0x23413, size: 0x8, addend: 0x0, symName: __ZN7testing8internal15TestFactoryBaseD0Ev, symObjAddr: 0x2528, symBinAddr: 0x100002DA4, symSize: 0xC }
  - { offsetInCU: 0x2343D, offset: 0x2343D, size: 0x8, addend: 0x0, symName: __ZN7testing8internal15TestFactoryImplI19AVL_SampleCase_TestED2Ev, symObjAddr: 0x2534, symBinAddr: 0x100002DB0, symSize: 0x2C }
  - { offsetInCU: 0x2346A, offset: 0x2346A, size: 0x8, addend: 0x0, symName: __ZN7testing8internal15TestFactoryBaseD2Ev, symObjAddr: 0x2560, symBinAddr: 0x100002DDC, symSize: 0x14 }
  - { offsetInCU: 0x23494, offset: 0x23494, size: 0x8, addend: 0x0, symName: __ZN19AVL_SampleCase_TestC1Ev, symObjAddr: 0x2574, symBinAddr: 0x100002DF0, symSize: 0x2C }
  - { offsetInCU: 0x234BE, offset: 0x234BE, size: 0x8, addend: 0x0, symName: __ZN19AVL_SampleCase_TestC2Ev, symObjAddr: 0x25A0, symBinAddr: 0x100002E1C, symSize: 0x44 }
  - { offsetInCU: 0x234E8, offset: 0x234E8, size: 0x8, addend: 0x0, symName: __ZN7testing8internal12CodeLocationD2Ev, symObjAddr: 0x25E4, symBinAddr: 0x100002E60, symSize: 0x2C }
  - { offsetInCU: 0x23515, offset: 0x23515, size: 0x8, addend: 0x0, symName: __ZN7AVLTreeINSt3__112basic_stringIcNS0_11char_traitsIcEENS0_9allocatorIcEEEES6_EC2Ev, symObjAddr: 0x2610, symBinAddr: 0x100002E8C, symSize: 0x44 }
  - { offsetInCU: 0x23541, offset: 0x23541, size: 0x8, addend: 0x0, symName: __ZN16BinarySearchTreeINSt3__112basic_stringIcNS0_11char_traitsIcEENS0_9allocatorIcEEEES6_EC2Ev, symObjAddr: 0x2654, symBinAddr: 0x100002ED0, symSize: 0x28 }
  - { offsetInCU: 0x2356D, offset: 0x2356D, size: 0x8, addend: 0x0, symName: __ZN7AVLTreeINSt3__112basic_stringIcNS0_11char_traitsIcEENS0_9allocatorIcEEEES6_ED0Ev, symObjAddr: 0x267C, symBinAddr: 0x100002EF8, symSize: 0x30 }
  - { offsetInCU: 0x23599, offset: 0x23599, size: 0x8, addend: 0x0, symName: __ZN7AVLTreeINSt3__112basic_stringIcNS0_11char_traitsIcEENS0_9allocatorIcEEEES6_E6removeERKS6_, symObjAddr: 0x26AC, symBinAddr: 0x100002F28, symSize: 0x34C }
  - { offsetInCU: 0x235FB, offset: 0x235FB, size: 0x8, addend: 0x0, symName: __ZNK16BinarySearchTreeINSt3__112basic_stringIcNS0_11char_traitsIcEENS0_9allocatorIcEEEES6_E9printRootEP4NodeIS6_S6_E, symObjAddr: 0x29F8, symBinAddr: 0x100003274, symSize: 0xC80 }
  - { offsetInCU: 0x23823, offset: 0x23823, size: 0x8, addend: 0x0, symName: __ZN16BinarySearchTreeINSt3__112basic_stringIcNS0_11char_traitsIcEENS0_9allocatorIcEEEES6_E8nodeSwapEP4NodeIS6_S6_ESA_, symObjAddr: 0x3678, symBinAddr: 0x100003EF4, symSize: 0x584 }
  - { offsetInCU: 0x238F0, offset: 0x238F0, size: 0x8, addend: 0x0, symName: __ZN7AVLTreeINSt3__112basic_stringIcNS0_11char_traitsIcEENS0_9allocatorIcEEEES6_E8nodeSwapEP7AVLNodeIS6_S6_ESA_, symObjAddr: 0x3BFC, symBinAddr: 0x100004478, symSize: 0x68 }
  - { offsetInCU: 0x23943, offset: 0x23943, size: 0x8, addend: 0x0, symName: __ZN16BinarySearchTreeINSt3__112basic_stringIcNS0_11char_traitsIcEENS0_9allocatorIcEEEES6_ED1Ev, symObjAddr: 0x3C64, symBinAddr: 0x1000044E0, symSize: 0x2C }
  - { offsetInCU: 0x2396F, offset: 0x2396F, size: 0x8, addend: 0x0, symName: __ZN16BinarySearchTreeINSt3__112basic_stringIcNS0_11char_traitsIcEENS0_9allocatorIcEEEES6_ED0Ev, symObjAddr: 0x3C90, symBinAddr: 0x10000450C, symSize: 0x30 }
  - { offsetInCU: 0x2399B, offset: 0x2399B, size: 0x8, addend: 0x0, symName: __ZN16BinarySearchTreeINSt3__112basic_stringIcNS0_11char_traitsIcEENS0_9allocatorIcEEEES6_E6insertERKNS0_4pairIKS6_S6_EE, symObjAddr: 0x3CC0, symBinAddr: 0x10000453C, symSize: 0x2D4 }
  - { offsetInCU: 0x23A13, offset: 0x23A13, size: 0x8, addend: 0x0, symName: __ZN16BinarySearchTreeINSt3__112basic_stringIcNS0_11char_traitsIcEENS0_9allocatorIcEEEES6_E6removeERKS6_, symObjAddr: 0x3F94, symBinAddr: 0x100004810, symSize: 0x2D8 }
  - { offsetInCU: 0x23A67, offset: 0x23A67, size: 0x8, addend: 0x0, symName: __ZN16BinarySearchTreeINSt3__112basic_stringIcNS0_11char_traitsIcEENS0_9allocatorIcEEEES6_ED2Ev, symObjAddr: 0x426C, symBinAddr: 0x100004AE8, symSize: 0x44 }
  - { offsetInCU: 0x23A93, offset: 0x23A93, size: 0x8, addend: 0x0, symName: __ZN16BinarySearchTreeINSt3__112basic_stringIcNS0_11char_traitsIcEENS0_9allocatorIcEEEES6_E5clearEv, symObjAddr: 0x42B0, symBinAddr: 0x100004B2C, symSize: 0x3C }
  - { offsetInCU: 0x23ACA, offset: 0x23ACA, size: 0x8, addend: 0x0, symName: __ZN16BinarySearchTreeINSt3__112basic_stringIcNS0_11char_traitsIcEENS0_9allocatorIcEEEES6_E9clearTreeEP4NodeIS6_S6_E, symObjAddr: 0x42EC, symBinAddr: 0x100004B68, symSize: 0xA4 }
  - { offsetInCU: 0x23B00, offset: 0x23B00, size: 0x8, addend: 0x0, symName: __ZNK16BinarySearchTreeINSt3__112basic_stringIcNS0_11char_traitsIcEENS0_9allocatorIcEEEES6_E5emptyEv, symObjAddr: 0x4390, symBinAddr: 0x100004C0C, symSize: 0x24 }
  - { offsetInCU: 0x23B28, offset: 0x23B28, size: 0x8, addend: 0x0, symName: __ZN4NodeINSt3__112basic_stringIcNS0_11char_traitsIcEENS0_9allocatorIcEEEES6_EC1ERKS6_S9_PS7_, symObjAddr: 0x43B4, symBinAddr: 0x100004C30, symSize: 0x44 }
  - { offsetInCU: 0x23B7D, offset: 0x23B7D, size: 0x8, addend: 0x0, symName: __ZNK4NodeINSt3__112basic_stringIcNS0_11char_traitsIcEENS0_9allocatorIcEEEES6_E6getKeyEv, symObjAddr: 0x4540, symBinAddr: 0x100004DBC, symSize: 0x18 }
  - { offsetInCU: 0x23BA4, offset: 0x23BA4, size: 0x8, addend: 0x0, symName: __ZN4NodeINSt3__112basic_stringIcNS0_11char_traitsIcEENS0_9allocatorIcEEEES6_E8setValueERKS6_, symObjAddr: 0x4558, symBinAddr: 0x100004DD4, symSize: 0x30 }
  - { offsetInCU: 0x23BD9, offset: 0x23BD9, size: 0x8, addend: 0x0, symName: __ZN4NodeINSt3__112basic_stringIcNS0_11char_traitsIcEENS0_9allocatorIcEEEES6_E8setRightEPS7_, symObjAddr: 0x45F0, symBinAddr: 0x100004E6C, symSize: 0x20 }
  - { offsetInCU: 0x23C0E, offset: 0x23C0E, size: 0x8, addend: 0x0, symName: __ZN4NodeINSt3__112basic_stringIcNS0_11char_traitsIcEENS0_9allocatorIcEEEES6_E7setLeftEPS7_, symObjAddr: 0x4610, symBinAddr: 0x100004E8C, symSize: 0x20 }
  - { offsetInCU: 0x23C43, offset: 0x23C43, size: 0x8, addend: 0x0, symName: __ZN4NodeINSt3__112basic_stringIcNS0_11char_traitsIcEENS0_9allocatorIcEEEES6_EC2ERKS6_S9_PS7_, symObjAddr: 0x4630, symBinAddr: 0x100004EAC, symSize: 0x64 }
  - { offsetInCU: 0x23C98, offset: 0x23C98, size: 0x8, addend: 0x0, symName: __ZNSt3__14pairIKNS_12basic_stringIcNS_11char_traitsIcEENS_9allocatorIcEEEES6_EC1B8ue170006ILb1ELPv0EEERS7_SB_, symObjAddr: 0x4694, symBinAddr: 0x100004F10, symSize: 0x3C }
  - { offsetInCU: 0x23CEE, offset: 0x23CEE, size: 0x8, addend: 0x0, symName: __ZN4NodeINSt3__112basic_stringIcNS0_11char_traitsIcEENS0_9allocatorIcEEEES6_ED1Ev, symObjAddr: 0x46D0, symBinAddr: 0x100004F4C, symSize: 0x2C }
  - { offsetInCU: 0x23D19, offset: 0x23D19, size: 0x8, addend: 0x0, symName: __ZN4NodeINSt3__112basic_stringIcNS0_11char_traitsIcEENS0_9allocatorIcEEEES6_ED0Ev, symObjAddr: 0x46FC, symBinAddr: 0x100004F78, symSize: 0x30 }
  - { offsetInCU: 0x23D44, offset: 0x23D44, size: 0x8, addend: 0x0, symName: __ZNK4NodeINSt3__112basic_stringIcNS0_11char_traitsIcEENS0_9allocatorIcEEEES6_E9getParentEv, symObjAddr: 0x472C, symBinAddr: 0x100004FA8, symSize: 0x18 }
  - { offsetInCU: 0x23D6B, offset: 0x23D6B, size: 0x8, addend: 0x0, symName: __ZNK4NodeINSt3__112basic_stringIcNS0_11char_traitsIcEENS0_9allocatorIcEEEES6_E7getLeftEv, symObjAddr: 0x4744, symBinAddr: 0x100004FC0, symSize: 0x18 }
  - { offsetInCU: 0x23D92, offset: 0x23D92, size: 0x8, addend: 0x0, symName: __ZNK4NodeINSt3__112basic_stringIcNS0_11char_traitsIcEENS0_9allocatorIcEEEES6_E8getRightEv, symObjAddr: 0x475C, symBinAddr: 0x100004FD8, symSize: 0x18 }
  - { offsetInCU: 0x23DB9, offset: 0x23DB9, size: 0x8, addend: 0x0, symName: __ZNSt3__14pairIKNS_12basic_stringIcNS_11char_traitsIcEENS_9allocatorIcEEEES6_EC2B8ue170006ILb1ELPv0EEERS7_SB_, symObjAddr: 0x4774, symBinAddr: 0x100004FF0, symSize: 0x70 }
  - { offsetInCU: 0x23E0F, offset: 0x23E0F, size: 0x8, addend: 0x0, symName: __ZN4NodeINSt3__112basic_stringIcNS0_11char_traitsIcEENS0_9allocatorIcEEEES6_ED2Ev, symObjAddr: 0x47E4, symBinAddr: 0x100005060, symSize: 0x40 }
  - { offsetInCU: 0x23E3A, offset: 0x23E3A, size: 0x8, addend: 0x0, symName: __ZNKSt3__112basic_stringIcNS_11char_traitsIcEENS_9allocatorIcEEE4sizeB8ue170006Ev, symObjAddr: 0x4824, symBinAddr: 0x1000050A0, symSize: 0x54 }
  - { offsetInCU: 0x23E60, offset: 0x23E60, size: 0x8, addend: 0x0, symName: __ZNKSt3__112basic_stringIcNS_11char_traitsIcEENS_9allocatorIcEEE4dataB8ue170006Ev, symObjAddr: 0x4878, symBinAddr: 0x1000050F4, symSize: 0x28 }
  - { offsetInCU: 0x23E86, offset: 0x23E86, size: 0x8, addend: 0x0, symName: __ZNKSt3__112basic_stringIcNS_11char_traitsIcEENS_9allocatorIcEEE9__is_longB8ue170006Ev, symObjAddr: 0x48A0, symBinAddr: 0x10000511C, symSize: 0x38 }
  - { offsetInCU: 0x23EAC, offset: 0x23EAC, size: 0x8, addend: 0x0, symName: __ZNSt3__111char_traitsIcE7compareB8ue170006EPKcS3_m, symObjAddr: 0x48D8, symBinAddr: 0x100005154, symSize: 0x34 }
  - { offsetInCU: 0x23EEB, offset: 0x23EEB, size: 0x8, addend: 0x0, symName: __ZNKSt3__112basic_stringIcNS_11char_traitsIcEENS_9allocatorIcEEE15__get_long_sizeB8ue170006Ev, symObjAddr: 0x490C, symBinAddr: 0x100005188, symSize: 0x28 }
  - { offsetInCU: 0x23F11, offset: 0x23F11, size: 0x8, addend: 0x0, symName: __ZNKSt3__112basic_stringIcNS_11char_traitsIcEENS_9allocatorIcEEE16__get_short_sizeB8ue170006Ev, symObjAddr: 0x4934, symBinAddr: 0x1000051B0, symSize: 0x34 }
  - { offsetInCU: 0x23F37, offset: 0x23F37, size: 0x8, addend: 0x0, symName: __ZNKSt3__117__compressed_pairINS_12basic_stringIcNS_11char_traitsIcEENS_9allocatorIcEEE5__repES5_E5firstB8ue170006Ev, symObjAddr: 0x4968, symBinAddr: 0x1000051E4, symSize: 0x24 }
  - { offsetInCU: 0x23F5D, offset: 0x23F5D, size: 0x8, addend: 0x0, symName: __ZNKSt3__122__compressed_pair_elemINS_12basic_stringIcNS_11char_traitsIcEENS_9allocatorIcEEE5__repELi0ELb0EE5__getB8ue170006Ev, symObjAddr: 0x498C, symBinAddr: 0x100005208, symSize: 0x14 }
  - { offsetInCU: 0x23F83, offset: 0x23F83, size: 0x8, addend: 0x0, symName: __ZNKSt3__112basic_stringIcNS_11char_traitsIcEENS_9allocatorIcEEE13__get_pointerB8ue170006Ev, symObjAddr: 0x49B4, symBinAddr: 0x100005230, symSize: 0x54 }
  - { offsetInCU: 0x23FA9, offset: 0x23FA9, size: 0x8, addend: 0x0, symName: __ZNKSt3__112basic_stringIcNS_11char_traitsIcEENS_9allocatorIcEEE18__get_long_pointerB8ue170006Ev, symObjAddr: 0x4A08, symBinAddr: 0x100005284, symSize: 0x28 }
  - { offsetInCU: 0x23FCF, offset: 0x23FCF, size: 0x8, addend: 0x0, symName: __ZNKSt3__112basic_stringIcNS_11char_traitsIcEENS_9allocatorIcEEE19__get_short_pointerB8ue170006Ev, symObjAddr: 0x4A30, symBinAddr: 0x1000052AC, symSize: 0x28 }
  - { offsetInCU: 0x23FF5, offset: 0x23FF5, size: 0x8, addend: 0x0, symName: __ZNSt3__114pointer_traitsIPKcE10pointer_toB8ue170006ERS1_, symObjAddr: 0x4A58, symBinAddr: 0x1000052D4, symSize: 0x14 }
  - { offsetInCU: 0x24018, offset: 0x24018, size: 0x8, addend: 0x0, symName: __ZNKSt3__112basic_stringIcNS_11char_traitsIcEENS_9allocatorIcEEE7compareB8ue170006ERKS5_, symObjAddr: 0x4A6C, symBinAddr: 0x1000052E8, symSize: 0x4C }
  - { offsetInCU: 0x2404F, offset: 0x2404F, size: 0x8, addend: 0x0, symName: __ZNKSt3__112basic_stringIcNS_11char_traitsIcEENS_9allocatorIcEEE7compareINS_17basic_string_viewIcS2_EELi0EEEiRKT_, symObjAddr: 0x4AB8, symBinAddr: 0x100005334, symSize: 0x12C }
  - { offsetInCU: 0x240D2, offset: 0x240D2, size: 0x8, addend: 0x0, symName: __ZNKSt3__112basic_stringIcNS_11char_traitsIcEENS_9allocatorIcEEEcvNS_17basic_string_viewIcS2_EEB8ue170006Ev, symObjAddr: 0x4BE4, symBinAddr: 0x100005460, symSize: 0x50 }
  - { offsetInCU: 0x240F8, offset: 0x240F8, size: 0x8, addend: 0x0, symName: __ZNKSt3__117basic_string_viewIcNS_11char_traitsIcEEE4sizeB8ue170006Ev, symObjAddr: 0x4C34, symBinAddr: 0x1000054B0, symSize: 0x18 }
  - { offsetInCU: 0x2411E, offset: 0x2411E, size: 0x8, addend: 0x0, symName: __ZNKSt3__117basic_string_viewIcNS_11char_traitsIcEEE4dataB8ue170006Ev, symObjAddr: 0x4C4C, symBinAddr: 0x1000054C8, symSize: 0x18 }
  - { offsetInCU: 0x2414E, offset: 0x2414E, size: 0x8, addend: 0x0, symName: __ZNKSt3__16__lessIvvEclB8ue170006ImmEEbRKT_RKT0_, symObjAddr: 0x4CE4, symBinAddr: 0x100005560, symSize: 0x34 }
  - { offsetInCU: 0x241A2, offset: 0x241A2, size: 0x8, addend: 0x0, symName: __ZNSt3__117basic_string_viewIcNS_11char_traitsIcEEEC1B8ue170006EPKcm, symObjAddr: 0x4D18, symBinAddr: 0x100005594, symSize: 0x3C }
  - { offsetInCU: 0x241EA, offset: 0x241EA, size: 0x8, addend: 0x0, symName: __ZNSt3__117basic_string_viewIcNS_11char_traitsIcEEEC2B8ue170006EPKcm, symObjAddr: 0x4D54, symBinAddr: 0x1000055D0, symSize: 0x2C }
  - { offsetInCU: 0x24232, offset: 0x24232, size: 0x8, addend: 0x0, symName: __ZNK16BinarySearchTreeINSt3__112basic_stringIcNS0_11char_traitsIcEENS0_9allocatorIcEEEES6_E12internalFindERKS6_, symObjAddr: 0x4D80, symBinAddr: 0x1000055FC, symSize: 0x164 }
  - { offsetInCU: 0x24277, offset: 0x24277, size: 0x8, addend: 0x0, symName: __ZN16BinarySearchTreeINSt3__112basic_stringIcNS0_11char_traitsIcEENS0_9allocatorIcEEEES6_E9successorEP4NodeIS6_S6_E, symObjAddr: 0x4EE4, symBinAddr: 0x100005760, symSize: 0x158 }
  - { offsetInCU: 0x242AB, offset: 0x242AB, size: 0x8, addend: 0x0, symName: __ZN4NodeINSt3__112basic_stringIcNS0_11char_traitsIcEENS0_9allocatorIcEEEES6_E9setParentEPS7_, symObjAddr: 0x503C, symBinAddr: 0x1000058B8, symSize: 0x20 }
  - { offsetInCU: 0x242E0, offset: 0x242E0, size: 0x8, addend: 0x0, symName: __ZN7AVLTreeINSt3__112basic_stringIcNS0_11char_traitsIcEENS0_9allocatorIcEEEES6_E9removeFixEP7AVLNodeIS6_S6_E, symObjAddr: 0x505C, symBinAddr: 0x1000058D8, symSize: 0x48C }
  - { offsetInCU: 0x2437F, offset: 0x2437F, size: 0x8, addend: 0x0, symName: __ZNK7AVLNodeINSt3__112basic_stringIcNS0_11char_traitsIcEENS0_9allocatorIcEEEES6_E9getHeightEv, symObjAddr: 0x54E8, symBinAddr: 0x100005D64, symSize: 0x18 }
  - { offsetInCU: 0x243A6, offset: 0x243A6, size: 0x8, addend: 0x0, symName: __ZNK16BinarySearchTreeINSt3__112basic_stringIcNS0_11char_traitsIcEENS0_9allocatorIcEEEES6_E12checkBalanceEP4NodeIS6_S6_E, symObjAddr: 0x5500, symBinAddr: 0x100005D7C, symSize: 0x140 }
  - { offsetInCU: 0x243FA, offset: 0x243FA, size: 0x8, addend: 0x0, symName: __ZNK16BinarySearchTreeINSt3__112basic_stringIcNS0_11char_traitsIcEENS0_9allocatorIcEEEES6_E10findHeightEP4NodeIS6_S6_E, symObjAddr: 0x5640, symBinAddr: 0x100005EBC, symSize: 0xB0 }
  - { offsetInCU: 0x24430, offset: 0x24430, size: 0x8, addend: 0x0, symName: __ZN7AVLTreeINSt3__112basic_stringIcNS0_11char_traitsIcEENS0_9allocatorIcEEEES6_E16performRotationsEP7AVLNodeIS6_S6_ESA_SA_, symObjAddr: 0x56F0, symBinAddr: 0x100005F6C, symSize: 0x770 }
  - { offsetInCU: 0x24491, offset: 0x24491, size: 0x8, addend: 0x0, symName: __ZN7AVLTreeINSt3__112basic_stringIcNS0_11char_traitsIcEENS0_9allocatorIcEEEES6_E11resetHeightEP7AVLNodeIS6_S6_E, symObjAddr: 0x5E60, symBinAddr: 0x1000066DC, symSize: 0x98 }
  - { offsetInCU: 0x244D6, offset: 0x244D6, size: 0x8, addend: 0x0, symName: __ZN7AVLNodeINSt3__112basic_stringIcNS0_11char_traitsIcEENS0_9allocatorIcEEEES6_E9setHeightEi, symObjAddr: 0x5EF8, symBinAddr: 0x100006774, symSize: 0x20 }
  - { offsetInCU: 0x2450B, offset: 0x2450B, size: 0x8, addend: 0x0, symName: __ZNKSt3__16__lessIvvEclB8ue170006IiiEEbRKT_RKT0_, symObjAddr: 0x5F98, symBinAddr: 0x100006814, symSize: 0x34 }
  - { offsetInCU: 0x2455F, offset: 0x2455F, size: 0x8, addend: 0x0, symName: __ZN7AVLTreeINSt3__112basic_stringIcNS0_11char_traitsIcEENS0_9allocatorIcEEEES6_E7findZigEP7AVLNodeIS6_S6_ESA_SA_, symObjAddr: 0x5FCC, symBinAddr: 0x100006848, symSize: 0x184 }
  - { offsetInCU: 0x245B1, offset: 0x245B1, size: 0x8, addend: 0x0, symName: __ZN4NodeINSt3__112basic_stringIcNS0_11char_traitsIcEENS0_9allocatorIcEEEES6_E7getItemEv, symObjAddr: 0x6150, symBinAddr: 0x1000069CC, symSize: 0x18 }
  - { offsetInCU: 0x245D8, offset: 0x245D8, size: 0x8, addend: 0x0, symName: __ZNSt3__113basic_ostreamIcNS_11char_traitsIcEEElsB8ue170006EPFRS3_S4_E, symObjAddr: 0x61B0, symBinAddr: 0x100006A2C, symSize: 0x2C }
  - { offsetInCU: 0x2460C, offset: 0x2460C, size: 0x8, addend: 0x0, symName: __ZNKSt3__18ios_base5flagsB8ue170006Ev, symObjAddr: 0x6234, symBinAddr: 0x100006AB0, symSize: 0x18 }
  - { offsetInCU: 0x24634, offset: 0x24634, size: 0x8, addend: 0x0, symName: __Z16getSubtreeHeightINSt3__112basic_stringIcNS0_11char_traitsIcEENS0_9allocatorIcEEEES6_EiP4NodeIT_T0_Ei, symObjAddr: 0x624C, symBinAddr: 0x100006AC8, symSize: 0xC4 }
  - { offsetInCU: 0x24680, offset: 0x24680, size: 0x8, addend: 0x0, symName: __ZNSt3__13mapINS_12basic_stringIcNS_11char_traitsIcEENS_9allocatorIcEEEEhNS_4lessIS6_EENS4_INS_4pairIKS6_hEEEEEC1B8ue170006Ev, symObjAddr: 0x6350, symBinAddr: 0x100006BCC, symSize: 0x2C }
  - { offsetInCU: 0x246AA, offset: 0x246AA, size: 0x8, addend: 0x0, symName: __ZNK16BinarySearchTreeINSt3__112basic_stringIcNS0_11char_traitsIcEENS0_9allocatorIcEEEES6_E5beginEv, symObjAddr: 0x637C, symBinAddr: 0x100006BF8, symSize: 0x34 }
  - { offsetInCU: 0x246E1, offset: 0x246E1, size: 0x8, addend: 0x0, symName: __ZNK16BinarySearchTreeINSt3__112basic_stringIcNS0_11char_traitsIcEENS0_9allocatorIcEEEES6_E8iteratorneERKS8_, symObjAddr: 0x63B0, symBinAddr: 0x100006C2C, symSize: 0x30 }
  - { offsetInCU: 0x24717, offset: 0x24717, size: 0x8, addend: 0x0, symName: __ZNK16BinarySearchTreeINSt3__112basic_stringIcNS0_11char_traitsIcEENS0_9allocatorIcEEEES6_E3endEv, symObjAddr: 0x63E0, symBinAddr: 0x100006C5C, symSize: 0x2C }
  - { offsetInCU: 0x2474E, offset: 0x2474E, size: 0x8, addend: 0x0, symName: __Z12getNodeDepthINSt3__112basic_stringIcNS0_11char_traitsIcEENS0_9allocatorIcEEEES6_EiRK16BinarySearchTreeIT_T0_EP4NodeIS8_S9_ESF_, symObjAddr: 0x640C, symBinAddr: 0x100006C88, symSize: 0xBC }
  - { offsetInCU: 0x247D3, offset: 0x247D3, size: 0x8, addend: 0x0, symName: __ZNSt3__13mapINS_12basic_stringIcNS_11char_traitsIcEENS_9allocatorIcEEEEhNS_4lessIS6_EENS4_INS_4pairIKS6_hEEEEE6insertB8ue170006INS9_IS6_hEEvEENS9_INS_14__map_iteratorINS_15__tree_iteratorINS_12__value_typeIS6_hEEPNS_11__tree_nodeISJ_PvEElEEEEbEEOT_, symObjAddr: 0x64C8, symBinAddr: 0x100006D44, symSize: 0x4C }
  - { offsetInCU: 0x24812, offset: 0x24812, size: 0x8, addend: 0x0, symName: __ZNSt3__14pairINS_12basic_stringIcNS_11char_traitsIcEENS_9allocatorIcEEEEhED1Ev, symObjAddr: 0x6554, symBinAddr: 0x100006DD0, symSize: 0x2C }
  - { offsetInCU: 0x2483E, offset: 0x2483E, size: 0x8, addend: 0x0, symName: __ZN16BinarySearchTreeINSt3__112basic_stringIcNS0_11char_traitsIcEENS0_9allocatorIcEEEES6_E8iteratorppEv, symObjAddr: 0x6580, symBinAddr: 0x100006DFC, symSize: 0x38 }
  - { offsetInCU: 0x24866, offset: 0x24866, size: 0x8, addend: 0x0, symName: __ZNSt3__16vectorIP4NodeINS_12basic_stringIcNS_11char_traitsIcEENS_9allocatorIcEEEES7_ENS5_IS9_EEEC1B8ue170006Ev, symObjAddr: 0x65B8, symBinAddr: 0x100006E34, symSize: 0x2C }
  - { offsetInCU: 0x24890, offset: 0x24890, size: 0x8, addend: 0x0, symName: __ZNSt3__16vectorIP4NodeINS_12basic_stringIcNS_11char_traitsIcEENS_9allocatorIcEEEES7_ENS5_IS9_EEE9push_backB8ue170006ERKS9_, symObjAddr: 0x65E4, symBinAddr: 0x100006E60, symSize: 0x6C }
  - { offsetInCU: 0x248C7, offset: 0x248C7, size: 0x8, addend: 0x0, symName: __ZNSt3__112basic_stringIcNS_11char_traitsIcEENS_9allocatorIcEEEC1B8ue170006Emc, symObjAddr: 0x66D8, symBinAddr: 0x100006F54, symSize: 0x3C }
  - { offsetInCU: 0x2490F, offset: 0x2490F, size: 0x8, addend: 0x0, symName: __ZNSt3__16vectorIP4NodeINS_12basic_stringIcNS_11char_traitsIcEENS_9allocatorIcEEEES7_ENS5_IS9_EEEixB8ue170006Em, symObjAddr: 0x6714, symBinAddr: 0x100006F90, symSize: 0x24 }
  - { offsetInCU: 0x24946, offset: 0x24946, size: 0x8, addend: 0x0, symName: __ZNSt3__13mapINS_12basic_stringIcNS_11char_traitsIcEENS_9allocatorIcEEEEhNS_4lessIS6_EENS4_INS_4pairIKS6_hEEEEEixERSA_, symObjAddr: 0x6738, symBinAddr: 0x100006FB4, symSize: 0x80 }
  - { offsetInCU: 0x2497D, offset: 0x2497D, size: 0x8, addend: 0x0, symName: __ZNSt3__16vectorIP4NodeINS_12basic_stringIcNS_11char_traitsIcEENS_9allocatorIcEEEES7_ENS5_IS9_EEEC1ERKSB_, symObjAddr: 0x6890, symBinAddr: 0x10000710C, symSize: 0x34 }
  - { offsetInCU: 0x249B8, offset: 0x249B8, size: 0x8, addend: 0x0, symName: __ZNSt3__16vectorIP4NodeINS_12basic_stringIcNS_11char_traitsIcEENS_9allocatorIcEEEES7_ENS5_IS9_EEE5clearB8ue170006Ev, symObjAddr: 0x68C4, symBinAddr: 0x100007140, symSize: 0x44 }
  - { offsetInCU: 0x249ED, offset: 0x249ED, size: 0x8, addend: 0x0, symName: __ZNSt3__16vectorIP4NodeINS_12basic_stringIcNS_11char_traitsIcEENS_9allocatorIcEEEES7_ENS5_IS9_EEE5beginB8ue170006Ev, symObjAddr: 0x6908, symBinAddr: 0x100007184, symSize: 0x30 }
  - { offsetInCU: 0x24A15, offset: 0x24A15, size: 0x8, addend: 0x0, symName: __ZNSt3__16vectorIP4NodeINS_12basic_stringIcNS_11char_traitsIcEENS_9allocatorIcEEEES7_ENS5_IS9_EEE3endB8ue170006Ev, symObjAddr: 0x696C, symBinAddr: 0x1000071E8, symSize: 0x30 }
  - { offsetInCU: 0x24A3D, offset: 0x24A3D, size: 0x8, addend: 0x0, symName: __ZNKSt3__111__wrap_iterIPP4NodeINS_12basic_stringIcNS_11char_traitsIcEENS_9allocatorIcEEEES7_EEdeB8ue170006Ev, symObjAddr: 0x699C, symBinAddr: 0x100007218, symSize: 0x18 }
  - { offsetInCU: 0x24A63, offset: 0x24A63, size: 0x8, addend: 0x0, symName: __ZNSt3__16vectorIP4NodeINS_12basic_stringIcNS_11char_traitsIcEENS_9allocatorIcEEEES7_ENS5_IS9_EEE9push_backB8ue170006EOS9_, symObjAddr: 0x69B4, symBinAddr: 0x100007230, symSize: 0x6C }
  - { offsetInCU: 0x24A9A, offset: 0x24A9A, size: 0x8, addend: 0x0, symName: __ZNSt3__111__wrap_iterIPP4NodeINS_12basic_stringIcNS_11char_traitsIcEENS_9allocatorIcEEEES7_EEppB8ue170006Ev, symObjAddr: 0x6A20, symBinAddr: 0x10000729C, symSize: 0x20 }
  - { offsetInCU: 0x24AC0, offset: 0x24AC0, size: 0x8, addend: 0x0, symName: __ZNKSt3__16vectorIP4NodeINS_12basic_stringIcNS_11char_traitsIcEENS_9allocatorIcEEEES7_ENS5_IS9_EEE4sizeB8ue170006Ev, symObjAddr: 0x6A40, symBinAddr: 0x1000072BC, symSize: 0x28 }
  - { offsetInCU: 0x24AE6, offset: 0x24AE6, size: 0x8, addend: 0x0, symName: __ZNSt3__16vectorIP4NodeINS_12basic_stringIcNS_11char_traitsIcEENS_9allocatorIcEEEES7_ENS5_IS9_EEED1B8ue170006Ev, symObjAddr: 0x6A68, symBinAddr: 0x1000072E4, symSize: 0x2C }
  - { offsetInCU: 0x24B10, offset: 0x24B10, size: 0x8, addend: 0x0, symName: __ZNSt3__13mapINS_12basic_stringIcNS_11char_traitsIcEENS_9allocatorIcEEEEhNS_4lessIS6_EENS4_INS_4pairIKS6_hEEEEE5beginB8ue170006Ev, symObjAddr: 0x6A94, symBinAddr: 0x100007310, symSize: 0x38 }
  - { offsetInCU: 0x24B36, offset: 0x24B36, size: 0x8, addend: 0x0, symName: __ZNSt3__13mapINS_12basic_stringIcNS_11char_traitsIcEENS_9allocatorIcEEEEhNS_4lessIS6_EENS4_INS_4pairIKS6_hEEEEE3endB8ue170006Ev, symObjAddr: 0x6AFC, symBinAddr: 0x100007378, symSize: 0x38 }
  - { offsetInCU: 0x24B5C, offset: 0x24B5C, size: 0x8, addend: 0x0, symName: __ZNKSt3__114__map_iteratorINS_15__tree_iteratorINS_12__value_typeINS_12basic_stringIcNS_11char_traitsIcEENS_9allocatorIcEEEEhEEPNS_11__tree_nodeIS9_PvEElEEEptB8ue170006Ev, symObjAddr: 0x6B68, symBinAddr: 0x1000073E4, symSize: 0x2C }
  - { offsetInCU: 0x24B82, offset: 0x24B82, size: 0x8, addend: 0x0, symName: __ZNSt3__18ios_base5flagsB8ue170006Ej, symObjAddr: 0x6B94, symBinAddr: 0x100007410, symSize: 0x2C }
  - { offsetInCU: 0x24BC8, offset: 0x24BC8, size: 0x8, addend: 0x0, symName: __ZNK16BinarySearchTreeINSt3__112basic_stringIcNS0_11char_traitsIcEENS0_9allocatorIcEEEES6_E8iteratoreqERKS8_, symObjAddr: 0x6BC0, symBinAddr: 0x10000743C, symSize: 0x30 }
  - { offsetInCU: 0x24BFE, offset: 0x24BFE, size: 0x8, addend: 0x0, symName: __ZNSt3__114__map_iteratorINS_15__tree_iteratorINS_12__value_typeINS_12basic_stringIcNS_11char_traitsIcEENS_9allocatorIcEEEEhEEPNS_11__tree_nodeIS9_PvEElEEEppB8ue170006Ev, symObjAddr: 0x6BF0, symBinAddr: 0x10000746C, symSize: 0x2C }
  - { offsetInCU: 0x24C24, offset: 0x24C24, size: 0x8, addend: 0x0, symName: __ZNSt3__13mapINS_12basic_stringIcNS_11char_traitsIcEENS_9allocatorIcEEEEhNS_4lessIS6_EENS4_INS_4pairIKS6_hEEEEED1B8ue170006Ev, symObjAddr: 0x6C1C, symBinAddr: 0x100007498, symSize: 0x2C }
  - { offsetInCU: 0x24C4E, offset: 0x24C4E, size: 0x8, addend: 0x0, symName: __ZNSt3__111char_traitsIcE6lengthB8ue170006EPKc, symObjAddr: 0x6E34, symBinAddr: 0x1000076B0, symSize: 0x34 }
  - { offsetInCU: 0x24C92, offset: 0x24C92, size: 0x8, addend: 0x0, symName: __ZNKSt3__113basic_ostreamIcNS_11char_traitsIcEEE6sentrycvbB8ue170006Ev, symObjAddr: 0x6E68, symBinAddr: 0x1000076E4, symSize: 0x1C }
  - { offsetInCU: 0x24CB8, offset: 0x24CB8, size: 0x8, addend: 0x0, symName: __ZNSt3__119ostreambuf_iteratorIcNS_11char_traitsIcEEEC1B8ue170006ERNS_13basic_ostreamIcS2_EE, symObjAddr: 0x70C4, symBinAddr: 0x100007940, symSize: 0x34 }
  - { offsetInCU: 0x24CF0, offset: 0x24CF0, size: 0x8, addend: 0x0, symName: __ZNKSt3__19basic_iosIcNS_11char_traitsIcEEE4fillB8ue170006Ev, symObjAddr: 0x70F8, symBinAddr: 0x100007974, symSize: 0x64 }
  - { offsetInCU: 0x24D18, offset: 0x24D18, size: 0x8, addend: 0x0, symName: __ZNKSt3__119ostreambuf_iteratorIcNS_11char_traitsIcEEE6failedB8ue170006Ev, symObjAddr: 0x715C, symBinAddr: 0x1000079D8, symSize: 0x24 }
  - { offsetInCU: 0x24D3E, offset: 0x24D3E, size: 0x8, addend: 0x0, symName: __ZNSt3__19basic_iosIcNS_11char_traitsIcEEE8setstateB8ue170006Ej, symObjAddr: 0x7180, symBinAddr: 0x1000079FC, symSize: 0x2C }
  - { offsetInCU: 0x24D73, offset: 0x24D73, size: 0x8, addend: 0x0, symName: __ZNKSt3__18ios_base5widthB8ue170006Ev, symObjAddr: 0x71AC, symBinAddr: 0x100007A28, symSize: 0x18 }
  - { offsetInCU: 0x24D9B, offset: 0x24D9B, size: 0x8, addend: 0x0, symName: __ZNSt3__115basic_streambufIcNS_11char_traitsIcEEE5sputnB8ue170006EPKcl, symObjAddr: 0x71C4, symBinAddr: 0x100007A40, symSize: 0x3C }
  - { offsetInCU: 0x24DDD, offset: 0x24DDD, size: 0x8, addend: 0x0, symName: __ZNSt3__112basic_stringIcNS_11char_traitsIcEENS_9allocatorIcEEE4dataB8ue170006Ev, symObjAddr: 0x7200, symBinAddr: 0x100007A7C, symSize: 0x28 }
  - { offsetInCU: 0x24E03, offset: 0x24E03, size: 0x8, addend: 0x0, symName: __ZNSt3__18ios_base5widthB8ue170006El, symObjAddr: 0x7228, symBinAddr: 0x100007AA4, symSize: 0x2C }
  - { offsetInCU: 0x24E49, offset: 0x24E49, size: 0x8, addend: 0x0, symName: __ZNSt3__112basic_stringIcNS_11char_traitsIcEENS_9allocatorIcEEE13__get_pointerB8ue170006Ev, symObjAddr: 0x7268, symBinAddr: 0x100007AE4, symSize: 0x54 }
  - { offsetInCU: 0x24E6F, offset: 0x24E6F, size: 0x8, addend: 0x0, symName: __ZNSt3__112basic_stringIcNS_11char_traitsIcEENS_9allocatorIcEEE18__get_long_pointerB8ue170006Ev, symObjAddr: 0x72BC, symBinAddr: 0x100007B38, symSize: 0x28 }
  - { offsetInCU: 0x24E95, offset: 0x24E95, size: 0x8, addend: 0x0, symName: __ZNSt3__112basic_stringIcNS_11char_traitsIcEENS_9allocatorIcEEE19__get_short_pointerB8ue170006Ev, symObjAddr: 0x72E4, symBinAddr: 0x100007B60, symSize: 0x28 }
  - { offsetInCU: 0x24EBB, offset: 0x24EBB, size: 0x8, addend: 0x0, symName: __ZNSt3__114pointer_traitsIPcE10pointer_toB8ue170006ERc, symObjAddr: 0x730C, symBinAddr: 0x100007B88, symSize: 0x14 }
  - { offsetInCU: 0x24EDE, offset: 0x24EDE, size: 0x8, addend: 0x0, symName: __ZNSt3__119ostreambuf_iteratorIcNS_11char_traitsIcEEEC2B8ue170006ERNS_13basic_ostreamIcS2_EE, symObjAddr: 0x7320, symBinAddr: 0x100007B9C, symSize: 0x54 }
  - { offsetInCU: 0x24F16, offset: 0x24F16, size: 0x8, addend: 0x0, symName: __ZNKSt3__19basic_iosIcNS_11char_traitsIcEEE5rdbufB8ue170006Ev, symObjAddr: 0x7374, symBinAddr: 0x100007BF0, symSize: 0x24 }
  - { offsetInCU: 0x24F3E, offset: 0x24F3E, size: 0x8, addend: 0x0, symName: __ZNKSt3__18ios_base5rdbufB8ue170006Ev, symObjAddr: 0x7398, symBinAddr: 0x100007C14, symSize: 0x18 }
  - { offsetInCU: 0x24F64, offset: 0x24F64, size: 0x8, addend: 0x0, symName: __ZNSt3__111char_traitsIcE11eq_int_typeB8ue170006Eii, symObjAddr: 0x73B0, symBinAddr: 0x100007C2C, symSize: 0x28 }
  - { offsetInCU: 0x24F97, offset: 0x24F97, size: 0x8, addend: 0x0, symName: __ZNSt3__111char_traitsIcE3eofB8ue170006Ev, symObjAddr: 0x73D8, symBinAddr: 0x100007C54, symSize: 0x8 }
  - { offsetInCU: 0x24FAB, offset: 0x24FAB, size: 0x8, addend: 0x0, symName: __ZNKSt3__19basic_iosIcNS_11char_traitsIcEEE5widenB8ue170006Ec, symObjAddr: 0x73E0, symBinAddr: 0x100007C5C, symSize: 0x84 }
  - { offsetInCU: 0x25014, offset: 0x25014, size: 0x8, addend: 0x0, symName: __ZNKSt3__15ctypeIcE5widenB8ue170006Ec, symObjAddr: 0x7490, symBinAddr: 0x100007D0C, symSize: 0x38 }
  - { offsetInCU: 0x25049, offset: 0x25049, size: 0x8, addend: 0x0, symName: __ZNSt3__18ios_base8setstateB8ue170006Ej, symObjAddr: 0x74C8, symBinAddr: 0x100007D44, symSize: 0x34 }
  - { offsetInCU: 0x25080, offset: 0x25080, size: 0x8, addend: 0x0, symName: __ZNSt3__13mapINS_12basic_stringIcNS_11char_traitsIcEENS_9allocatorIcEEEEhNS_4lessIS6_EENS4_INS_4pairIKS6_hEEEEEC2B8ue170006Ev, symObjAddr: 0x7520, symBinAddr: 0x100007D9C, symSize: 0x40 }
  - { offsetInCU: 0x250AA, offset: 0x250AA, size: 0x8, addend: 0x0, symName: __ZNSt3__119__map_value_compareINS_12basic_stringIcNS_11char_traitsIcEENS_9allocatorIcEEEENS_12__value_typeIS6_hEENS_4lessIS6_EELb1EEC1B8ue170006ESA_, symObjAddr: 0x7560, symBinAddr: 0x100007DDC, symSize: 0x2C }
  - { offsetInCU: 0x250E3, offset: 0x250E3, size: 0x8, addend: 0x0, symName: __ZNSt3__16__treeINS_12__value_typeINS_12basic_stringIcNS_11char_traitsIcEENS_9allocatorIcEEEEhEENS_19__map_value_compareIS7_S8_NS_4lessIS7_EELb1EEENS5_IS8_EEEC1ERKSC_, symObjAddr: 0x758C, symBinAddr: 0x100007E08, symSize: 0x34 }
  - { offsetInCU: 0x2511E, offset: 0x2511E, size: 0x8, addend: 0x0, symName: __ZNSt3__119__map_value_compareINS_12basic_stringIcNS_11char_traitsIcEENS_9allocatorIcEEEENS_12__value_typeIS6_hEENS_4lessIS6_EELb1EEC2B8ue170006ESA_, symObjAddr: 0x75C0, symBinAddr: 0x100007E3C, symSize: 0x14 }
  - { offsetInCU: 0x25157, offset: 0x25157, size: 0x8, addend: 0x0, symName: __ZNSt3__16__treeINS_12__value_typeINS_12basic_stringIcNS_11char_traitsIcEENS_9allocatorIcEEEEhEENS_19__map_value_compareIS7_S8_NS_4lessIS7_EELb1EEENS5_IS8_EEEC2ERKSC_, symObjAddr: 0x75D4, symBinAddr: 0x100007E50, symSize: 0x7C }
  - { offsetInCU: 0x25192, offset: 0x25192, size: 0x8, addend: 0x0, symName: __ZNSt3__117__compressed_pairINS_15__tree_end_nodeIPNS_16__tree_node_baseIPvEEEENS_9allocatorINS_11__tree_nodeINS_12__value_typeINS_12basic_stringIcNS_11char_traitsIcEENS7_IcEEEEhEES3_EEEEEC1B8ue170006ILb1EvEEv, symObjAddr: 0x7650, symBinAddr: 0x100007ECC, symSize: 0x2C }
  - { offsetInCU: 0x251CD, offset: 0x251CD, size: 0x8, addend: 0x0, symName: __ZNSt3__117__compressed_pairImNS_19__map_value_compareINS_12basic_stringIcNS_11char_traitsIcEENS_9allocatorIcEEEENS_12__value_typeIS7_hEENS_4lessIS7_EELb1EEEEC1B8ue170006IiRKSC_EEOT_OT0_, symObjAddr: 0x767C, symBinAddr: 0x100007EF8, symSize: 0x3C }
  - { offsetInCU: 0x25225, offset: 0x25225, size: 0x8, addend: 0x0, symName: __ZNSt3__16__treeINS_12__value_typeINS_12basic_stringIcNS_11char_traitsIcEENS_9allocatorIcEEEEhEENS_19__map_value_compareIS7_S8_NS_4lessIS7_EELb1EEENS5_IS8_EEE10__end_nodeB8ue170006Ev, symObjAddr: 0x76B8, symBinAddr: 0x100007F34, symSize: 0x2C }
  - { offsetInCU: 0x2524B, offset: 0x2524B, size: 0x8, addend: 0x0, symName: __ZNSt3__16__treeINS_12__value_typeINS_12basic_stringIcNS_11char_traitsIcEENS_9allocatorIcEEEEhEENS_19__map_value_compareIS7_S8_NS_4lessIS7_EELb1EEENS5_IS8_EEE12__begin_nodeB8ue170006Ev, symObjAddr: 0x76E4, symBinAddr: 0x100007F60, symSize: 0x14 }
  - { offsetInCU: 0x25271, offset: 0x25271, size: 0x8, addend: 0x0, symName: __ZNSt3__117__compressed_pairINS_15__tree_end_nodeIPNS_16__tree_node_baseIPvEEEENS_9allocatorINS_11__tree_nodeINS_12__value_typeINS_12basic_stringIcNS_11char_traitsIcEENS7_IcEEEEhEES3_EEEEEC2B8ue170006ILb1EvEEv, symObjAddr: 0x76F8, symBinAddr: 0x100007F74, symSize: 0x34 }
  - { offsetInCU: 0x252A6, offset: 0x252A6, size: 0x8, addend: 0x0, symName: __ZNSt3__122__compressed_pair_elemINS_15__tree_end_nodeIPNS_16__tree_node_baseIPvEEEELi0ELb0EEC2B8ue170006ENS_16__value_init_tagE, symObjAddr: 0x772C, symBinAddr: 0x100007FA8, symSize: 0x2C }
  - { offsetInCU: 0x252DB, offset: 0x252DB, size: 0x8, addend: 0x0, symName: __ZNSt3__122__compressed_pair_elemINS_9allocatorINS_11__tree_nodeINS_12__value_typeINS_12basic_stringIcNS_11char_traitsIcEENS1_IcEEEEhEEPvEEEELi1ELb1EEC2B8ue170006ENS_16__value_init_tagE, symObjAddr: 0x7758, symBinAddr: 0x100007FD4, symSize: 0x2C }
  - { offsetInCU: 0x25310, offset: 0x25310, size: 0x8, addend: 0x0, symName: __ZNSt3__115__tree_end_nodeIPNS_16__tree_node_baseIPvEEEC1B8ue170006Ev, symObjAddr: 0x7784, symBinAddr: 0x100008000, symSize: 0x2C }
  - { offsetInCU: 0x2533A, offset: 0x2533A, size: 0x8, addend: 0x0, symName: __ZNSt3__115__tree_end_nodeIPNS_16__tree_node_baseIPvEEEC2B8ue170006Ev, symObjAddr: 0x77B0, symBinAddr: 0x10000802C, symSize: 0x18 }
  - { offsetInCU: 0x25364, offset: 0x25364, size: 0x8, addend: 0x0, symName: __ZNSt3__19allocatorINS_11__tree_nodeINS_12__value_typeINS_12basic_stringIcNS_11char_traitsIcEENS0_IcEEEEhEEPvEEEC2B8ue170006Ev, symObjAddr: 0x77C8, symBinAddr: 0x100008044, symSize: 0x2C }
  - { offsetInCU: 0x2538E, offset: 0x2538E, size: 0x8, addend: 0x0, symName: __ZNSt3__116__non_trivial_ifILb1ENS_9allocatorINS_11__tree_nodeINS_12__value_typeINS_12basic_stringIcNS_11char_traitsIcEENS1_IcEEEEhEEPvEEEEEC2B8ue170006Ev, symObjAddr: 0x77F4, symBinAddr: 0x100008070, symSize: 0x14 }
  - { offsetInCU: 0x253B8, offset: 0x253B8, size: 0x8, addend: 0x0, symName: __ZNSt3__117__compressed_pairImNS_19__map_value_compareINS_12basic_stringIcNS_11char_traitsIcEENS_9allocatorIcEEEENS_12__value_typeIS7_hEENS_4lessIS7_EELb1EEEEC2B8ue170006IiRKSC_EEOT_OT0_, symObjAddr: 0x7808, symBinAddr: 0x100008084, symSize: 0x44 }
  - { offsetInCU: 0x25410, offset: 0x25410, size: 0x8, addend: 0x0, symName: __ZNSt3__122__compressed_pair_elemImLi0ELb0EEC2B8ue170006IivEEOT_, symObjAddr: 0x784C, symBinAddr: 0x1000080C8, symSize: 0x24 }
  - { offsetInCU: 0x25452, offset: 0x25452, size: 0x8, addend: 0x0, symName: __ZNSt3__122__compressed_pair_elemINS_19__map_value_compareINS_12basic_stringIcNS_11char_traitsIcEENS_9allocatorIcEEEENS_12__value_typeIS7_hEENS_4lessIS7_EELb1EEELi1ELb1EEC2B8ue170006IRKSC_vEEOT_, symObjAddr: 0x7870, symBinAddr: 0x1000080EC, symSize: 0x18 }
  - { offsetInCU: 0x25494, offset: 0x25494, size: 0x8, addend: 0x0, symName: __ZNSt3__114pointer_traitsIPNS_15__tree_end_nodeIPNS_16__tree_node_baseIPvEEEEE10pointer_toB8ue170006ERS6_, symObjAddr: 0x7888, symBinAddr: 0x100008104, symSize: 0x14 }
  - { offsetInCU: 0x254B7, offset: 0x254B7, size: 0x8, addend: 0x0, symName: __ZNSt3__117__compressed_pairINS_15__tree_end_nodeIPNS_16__tree_node_baseIPvEEEENS_9allocatorINS_11__tree_nodeINS_12__value_typeINS_12basic_stringIcNS_11char_traitsIcEENS7_IcEEEEhEES3_EEEEE5firstB8ue170006Ev, symObjAddr: 0x789C, symBinAddr: 0x100008118, symSize: 0x24 }
  - { offsetInCU: 0x254DD, offset: 0x254DD, size: 0x8, addend: 0x0, symName: __ZNSt3__122__compressed_pair_elemINS_15__tree_end_nodeIPNS_16__tree_node_baseIPvEEEELi0ELb0EE5__getB8ue170006Ev, symObjAddr: 0x78C0, symBinAddr: 0x10000813C, symSize: 0x14 }
  - { offsetInCU: 0x25503, offset: 0x25503, size: 0x8, addend: 0x0, symName: __ZNK16BinarySearchTreeINSt3__112basic_stringIcNS0_11char_traitsIcEENS0_9allocatorIcEEEES6_E15getSmallestNodeEv, symObjAddr: 0x78D4, symBinAddr: 0x100008150, symSize: 0x90 }
  - { offsetInCU: 0x2553A, offset: 0x2553A, size: 0x8, addend: 0x0, symName: __ZN16BinarySearchTreeINSt3__112basic_stringIcNS0_11char_traitsIcEENS0_9allocatorIcEEEES6_E8iteratorC1EP4NodeIS6_S6_E, symObjAddr: 0x7964, symBinAddr: 0x1000081E0, symSize: 0x34 }
  - { offsetInCU: 0x25574, offset: 0x25574, size: 0x8, addend: 0x0, symName: __ZN16BinarySearchTreeINSt3__112basic_stringIcNS0_11char_traitsIcEENS0_9allocatorIcEEEES6_E8iteratorC2EP4NodeIS6_S6_E, symObjAddr: 0x7998, symBinAddr: 0x100008214, symSize: 0x20 }
  - { offsetInCU: 0x255AE, offset: 0x255AE, size: 0x8, addend: 0x0, symName: __ZNSt3__16__treeINS_12__value_typeINS_12basic_stringIcNS_11char_traitsIcEENS_9allocatorIcEEEEhEENS_19__map_value_compareIS7_S8_NS_4lessIS7_EELb1EEENS5_IS8_EEE15__insert_uniqueB8ue170006INS_4pairIS7_hEEvEENSG_INS_15__tree_iteratorIS8_PNS_11__tree_nodeIS8_PvEElEEbEEOT_, symObjAddr: 0x79B8, symBinAddr: 0x100008234, symSize: 0x3C }
  - { offsetInCU: 0x255ED, offset: 0x255ED, size: 0x8, addend: 0x0, symName: __ZNSt3__14pairINS_14__map_iteratorINS_15__tree_iteratorINS_12__value_typeINS_12basic_stringIcNS_11char_traitsIcEENS_9allocatorIcEEEEhEEPNS_11__tree_nodeISA_PvEElEEEEbEC1B8ue170006ISF_bLSC_0EEEONS0_IT_T0_EE, symObjAddr: 0x79F4, symBinAddr: 0x100008270, symSize: 0x34 }
  - { offsetInCU: 0x2563E, offset: 0x2563E, size: 0x8, addend: 0x0, symName: __ZNSt3__16__treeINS_12__value_typeINS_12basic_stringIcNS_11char_traitsIcEENS_9allocatorIcEEEEhEENS_19__map_value_compareIS7_S8_NS_4lessIS7_EELb1EEENS5_IS8_EEE16__emplace_uniqueB8ue170006INS_4pairIS7_hEEEENSG_INS_15__tree_iteratorIS8_PNS_11__tree_nodeIS8_PvEElEEbEEOT_, symObjAddr: 0x7A28, symBinAddr: 0x1000082A4, symSize: 0x3C }
  - { offsetInCU: 0x2567C, offset: 0x2567C, size: 0x8, addend: 0x0, symName: __ZNSt3__16__treeINS_12__value_typeINS_12basic_stringIcNS_11char_traitsIcEENS_9allocatorIcEEEEhEENS_19__map_value_compareIS7_S8_NS_4lessIS7_EELb1EEENS5_IS8_EEE28__emplace_unique_extract_keyB8ue170006INS_4pairIS7_hEEEENSG_INS_15__tree_iteratorIS8_PNS_11__tree_nodeIS8_PvEElEEbEEOT_NS_23__extract_key_first_tagE, symObjAddr: 0x7A64, symBinAddr: 0x1000082E0, symSize: 0x40 }
  - { offsetInCU: 0x256C5, offset: 0x256C5, size: 0x8, addend: 0x0, symName: __ZNSt3__16__treeINS_12__value_typeINS_12basic_stringIcNS_11char_traitsIcEENS_9allocatorIcEEEEhEENS_19__map_value_compareIS7_S8_NS_4lessIS7_EELb1EEENS5_IS8_EEE25__emplace_unique_key_argsIS7_JNS_4pairIS7_hEEEEENSG_INS_15__tree_iteratorIS8_PNS_11__tree_nodeIS8_PvEElEEbEERKT_DpOT0_, symObjAddr: 0x7AA4, symBinAddr: 0x100008320, symSize: 0xF0 }
  - { offsetInCU: 0x25771, offset: 0x25771, size: 0x8, addend: 0x0, symName: __ZNSt3__16__treeINS_12__value_typeINS_12basic_stringIcNS_11char_traitsIcEENS_9allocatorIcEEEEhEENS_19__map_value_compareIS7_S8_NS_4lessIS7_EELb1EEENS5_IS8_EEE12__find_equalIS7_EERPNS_16__tree_node_baseIPvEERPNS_15__tree_end_nodeISJ_EERKT_, symObjAddr: 0x7B94, symBinAddr: 0x100008410, symSize: 0x184 }
  - { offsetInCU: 0x257DE, offset: 0x257DE, size: 0x8, addend: 0x0, symName: __ZNSt3__16__treeINS_12__value_typeINS_12basic_stringIcNS_11char_traitsIcEENS_9allocatorIcEEEEhEENS_19__map_value_compareIS7_S8_NS_4lessIS7_EELb1EEENS5_IS8_EEE16__construct_nodeIJNS_4pairIS7_hEEEEENS_10unique_ptrINS_11__tree_nodeIS8_PvEENS_22__tree_node_destructorINS5_ISL_EEEEEEDpOT_, symObjAddr: 0x7D18, symBinAddr: 0x100008594, symSize: 0x110 }
  - { offsetInCU: 0x2583F, offset: 0x2583F, size: 0x8, addend: 0x0, symName: __ZNSt3__16__treeINS_12__value_typeINS_12basic_stringIcNS_11char_traitsIcEENS_9allocatorIcEEEEhEENS_19__map_value_compareIS7_S8_NS_4lessIS7_EELb1EEENS5_IS8_EEE16__insert_node_atEPNS_15__tree_end_nodeIPNS_16__tree_node_baseIPvEEEERSJ_SJ_, symObjAddr: 0x7E28, symBinAddr: 0x1000086A4, symSize: 0xCC }
  - { offsetInCU: 0x25894, offset: 0x25894, size: 0x8, addend: 0x0, symName: __ZNKSt3__110unique_ptrINS_11__tree_nodeINS_12__value_typeINS_12basic_stringIcNS_11char_traitsIcEENS_9allocatorIcEEEEhEEPvEENS_22__tree_node_destructorINS6_ISB_EEEEE3getB8ue170006Ev, symObjAddr: 0x7EF4, symBinAddr: 0x100008770, symSize: 0x28 }
  - { offsetInCU: 0x258BA, offset: 0x258BA, size: 0x8, addend: 0x0, symName: __ZNSt3__110unique_ptrINS_11__tree_nodeINS_12__value_typeINS_12basic_stringIcNS_11char_traitsIcEENS_9allocatorIcEEEEhEEPvEENS_22__tree_node_destructorINS6_ISB_EEEEE7releaseB8ue170006Ev, symObjAddr: 0x7F1C, symBinAddr: 0x100008798, symSize: 0x44 }
  - { offsetInCU: 0x258EF, offset: 0x258EF, size: 0x8, addend: 0x0, symName: __ZNSt3__110unique_ptrINS_11__tree_nodeINS_12__value_typeINS_12basic_stringIcNS_11char_traitsIcEENS_9allocatorIcEEEEhEEPvEENS_22__tree_node_destructorINS6_ISB_EEEEED1B8ue170006Ev, symObjAddr: 0x7F60, symBinAddr: 0x1000087DC, symSize: 0x2C }
  - { offsetInCU: 0x25919, offset: 0x25919, size: 0x8, addend: 0x0, symName: __ZNSt3__115__tree_iteratorINS_12__value_typeINS_12basic_stringIcNS_11char_traitsIcEENS_9allocatorIcEEEEhEEPNS_11__tree_nodeIS8_PvEElEC1B8ue170006ESC_, symObjAddr: 0x7F8C, symBinAddr: 0x100008808, symSize: 0x34 }
  - { offsetInCU: 0x25958, offset: 0x25958, size: 0x8, addend: 0x0, symName: __ZNSt3__14pairINS_15__tree_iteratorINS_12__value_typeINS_12basic_stringIcNS_11char_traitsIcEENS_9allocatorIcEEEEhEEPNS_11__tree_nodeIS9_PvEElEEbEC1B8ue170006ISE_RbLSB_0EEEOT_OT0_, symObjAddr: 0x7FC0, symBinAddr: 0x10000883C, symSize: 0x3C }
  - { offsetInCU: 0x259B6, offset: 0x259B6, size: 0x8, addend: 0x0, symName: __ZNKSt3__16__treeINS_12__value_typeINS_12basic_stringIcNS_11char_traitsIcEENS_9allocatorIcEEEEhEENS_19__map_value_compareIS7_S8_NS_4lessIS7_EELb1EEENS5_IS8_EEE6__rootB8ue170006Ev, symObjAddr: 0x7FFC, symBinAddr: 0x100008878, symSize: 0x28 }
  - { offsetInCU: 0x259DC, offset: 0x259DC, size: 0x8, addend: 0x0, symName: __ZNKSt3__16__treeINS_12__value_typeINS_12basic_stringIcNS_11char_traitsIcEENS_9allocatorIcEEEEhEENS_19__map_value_compareIS7_S8_NS_4lessIS7_EELb1EEENS5_IS8_EEE10__root_ptrB8ue170006Ev, symObjAddr: 0x8024, symBinAddr: 0x1000088A0, symSize: 0x24 }
  - { offsetInCU: 0x25A02, offset: 0x25A02, size: 0x8, addend: 0x0, symName: __ZNSt3__16__treeINS_12__value_typeINS_12basic_stringIcNS_11char_traitsIcEENS_9allocatorIcEEEEhEENS_19__map_value_compareIS7_S8_NS_4lessIS7_EELb1EEENS5_IS8_EEE10value_compB8ue170006Ev, symObjAddr: 0x8048, symBinAddr: 0x1000088C4, symSize: 0x28 }
  - { offsetInCU: 0x25A28, offset: 0x25A28, size: 0x8, addend: 0x0, symName: __ZNKSt3__119__map_value_compareINS_12basic_stringIcNS_11char_traitsIcEENS_9allocatorIcEEEENS_12__value_typeIS6_hEENS_4lessIS6_EELb1EEclB8ue170006ERKS6_RKS8_, symObjAddr: 0x8070, symBinAddr: 0x1000088EC, symSize: 0x50 }
  - { offsetInCU: 0x25A6C, offset: 0x25A6C, size: 0x8, addend: 0x0, symName: __ZNKSt3__119__map_value_compareINS_12basic_stringIcNS_11char_traitsIcEENS_9allocatorIcEEEENS_12__value_typeIS6_hEENS_4lessIS6_EELb1EEclB8ue170006ERKS8_RKS6_, symObjAddr: 0x80C0, symBinAddr: 0x10000893C, symSize: 0x48 }
  - { offsetInCU: 0x25AB0, offset: 0x25AB0, size: 0x8, addend: 0x0, symName: __ZNKSt3__16__treeINS_12__value_typeINS_12basic_stringIcNS_11char_traitsIcEENS_9allocatorIcEEEEhEENS_19__map_value_compareIS7_S8_NS_4lessIS7_EELb1EEENS5_IS8_EEE10__end_nodeB8ue170006Ev, symObjAddr: 0x8108, symBinAddr: 0x100008984, symSize: 0x2C }
  - { offsetInCU: 0x25AD6, offset: 0x25AD6, size: 0x8, addend: 0x0, symName: __ZNKSt3__117__compressed_pairINS_15__tree_end_nodeIPNS_16__tree_node_baseIPvEEEENS_9allocatorINS_11__tree_nodeINS_12__value_typeINS_12basic_stringIcNS_11char_traitsIcEENS7_IcEEEEhEES3_EEEEE5firstB8ue170006Ev, symObjAddr: 0x8134, symBinAddr: 0x1000089B0, symSize: 0x24 }
  - { offsetInCU: 0x25AFC, offset: 0x25AFC, size: 0x8, addend: 0x0, symName: __ZNKSt3__122__compressed_pair_elemINS_15__tree_end_nodeIPNS_16__tree_node_baseIPvEEEELi0ELb0EE5__getB8ue170006Ev, symObjAddr: 0x8158, symBinAddr: 0x1000089D4, symSize: 0x14 }
  - { offsetInCU: 0x25B22, offset: 0x25B22, size: 0x8, addend: 0x0, symName: __ZNSt3__117__compressed_pairImNS_19__map_value_compareINS_12basic_stringIcNS_11char_traitsIcEENS_9allocatorIcEEEENS_12__value_typeIS7_hEENS_4lessIS7_EELb1EEEE6secondB8ue170006Ev, symObjAddr: 0x816C, symBinAddr: 0x1000089E8, symSize: 0x24 }
  - { offsetInCU: 0x25B48, offset: 0x25B48, size: 0x8, addend: 0x0, symName: __ZNSt3__122__compressed_pair_elemINS_19__map_value_compareINS_12basic_stringIcNS_11char_traitsIcEENS_9allocatorIcEEEENS_12__value_typeIS7_hEENS_4lessIS7_EELb1EEELi1ELb1EE5__getB8ue170006Ev, symObjAddr: 0x8190, symBinAddr: 0x100008A0C, symSize: 0x14 }
  - { offsetInCU: 0x25B6E, offset: 0x25B6E, size: 0x8, addend: 0x0, symName: __ZNKSt3__14lessINS_12basic_stringIcNS_11char_traitsIcEENS_9allocatorIcEEEEEclB8ue170006ERKS6_S9_, symObjAddr: 0x81A4, symBinAddr: 0x100008A20, symSize: 0x34 }
  - { offsetInCU: 0x25BB2, offset: 0x25BB2, size: 0x8, addend: 0x0, symName: __ZNKSt3__112__value_typeINS_12basic_stringIcNS_11char_traitsIcEENS_9allocatorIcEEEEhE11__get_valueB8ue170006Ev, symObjAddr: 0x81D8, symBinAddr: 0x100008A54, symSize: 0x24 }
  - { offsetInCU: 0x25BD8, offset: 0x25BD8, size: 0x8, addend: 0x0, symName: __ZNSt3__16__treeINS_12__value_typeINS_12basic_stringIcNS_11char_traitsIcEENS_9allocatorIcEEEEhEENS_19__map_value_compareIS7_S8_NS_4lessIS7_EELb1EEENS5_IS8_EEE12__node_allocB8ue170006Ev, symObjAddr: 0x8234, symBinAddr: 0x100008AB0, symSize: 0x28 }
  - { offsetInCU: 0x25BFE, offset: 0x25BFE, size: 0x8, addend: 0x0, symName: __ZNSt3__116allocator_traitsINS_9allocatorINS_11__tree_nodeINS_12__value_typeINS_12basic_stringIcNS_11char_traitsIcEENS1_IcEEEEhEEPvEEEEE8allocateB8ue170006ERSC_m, symObjAddr: 0x825C, symBinAddr: 0x100008AD8, symSize: 0x2C }
  - { offsetInCU: 0x25C31, offset: 0x25C31, size: 0x8, addend: 0x0, symName: __ZNSt3__122__tree_node_destructorINS_9allocatorINS_11__tree_nodeINS_12__value_typeINS_12basic_stringIcNS_11char_traitsIcEENS1_IcEEEEhEEPvEEEEEC1B8ue170006ERSC_b, symObjAddr: 0x8288, symBinAddr: 0x100008B04, symSize: 0x48 }
  - { offsetInCU: 0x25C7F, offset: 0x25C7F, size: 0x8, addend: 0x0, symName: __ZNSt3__110unique_ptrINS_11__tree_nodeINS_12__value_typeINS_12basic_stringIcNS_11char_traitsIcEENS_9allocatorIcEEEEhEEPvEENS_22__tree_node_destructorINS6_ISB_EEEEEC1B8ue170006ILb1EvEEPSB_NS_16__dependent_typeINS_27__unique_ptr_deleter_sfinaeISE_EEXT_EE20__good_rval_ref_typeE, symObjAddr: 0x82D0, symBinAddr: 0x100008B4C, symSize: 0x3C }
  - { offsetInCU: 0x25CD0, offset: 0x25CD0, size: 0x8, addend: 0x0, symName: __ZNSt3__116allocator_traitsINS_9allocatorINS_11__tree_nodeINS_12__value_typeINS_12basic_stringIcNS_11char_traitsIcEENS1_IcEEEEhEEPvEEEEE9constructB8ue170006INS_4pairIKS8_hEEJNSF_IS8_hEEEvEEvRSC_PT_DpOT0_, symObjAddr: 0x830C, symBinAddr: 0x100008B88, symSize: 0x34 }
  - { offsetInCU: 0x25D27, offset: 0x25D27, size: 0x8, addend: 0x0, symName: __ZNSt3__122__tree_key_value_typesINS_12__value_typeINS_12basic_stringIcNS_11char_traitsIcEENS_9allocatorIcEEEEhEEE9__get_ptrB8ue170006ERS8_, symObjAddr: 0x8340, symBinAddr: 0x100008BBC, symSize: 0x24 }
  - { offsetInCU: 0x25D4B, offset: 0x25D4B, size: 0x8, addend: 0x0, symName: __ZNKSt3__110unique_ptrINS_11__tree_nodeINS_12__value_typeINS_12basic_stringIcNS_11char_traitsIcEENS_9allocatorIcEEEEhEEPvEENS_22__tree_node_destructorINS6_ISB_EEEEEptB8ue170006Ev, symObjAddr: 0x8364, symBinAddr: 0x100008BE0, symSize: 0x28 }
  - { offsetInCU: 0x25D71, offset: 0x25D71, size: 0x8, addend: 0x0, symName: __ZNSt3__110unique_ptrINS_11__tree_nodeINS_12__value_typeINS_12basic_stringIcNS_11char_traitsIcEENS_9allocatorIcEEEEhEEPvEENS_22__tree_node_destructorINS6_ISB_EEEEE11get_deleterB8ue170006Ev, symObjAddr: 0x838C, symBinAddr: 0x100008C08, symSize: 0x24 }
  - { offsetInCU: 0x25D97, offset: 0x25D97, size: 0x8, addend: 0x0, symName: __ZNSt3__117__compressed_pairINS_15__tree_end_nodeIPNS_16__tree_node_baseIPvEEEENS_9allocatorINS_11__tree_nodeINS_12__value_typeINS_12basic_stringIcNS_11char_traitsIcEENS7_IcEEEEhEES3_EEEEE6secondB8ue170006Ev, symObjAddr: 0x83B0, symBinAddr: 0x100008C2C, symSize: 0x24 }
  - { offsetInCU: 0x25DBD, offset: 0x25DBD, size: 0x8, addend: 0x0, symName: __ZNSt3__122__compressed_pair_elemINS_9allocatorINS_11__tree_nodeINS_12__value_typeINS_12basic_stringIcNS_11char_traitsIcEENS1_IcEEEEhEEPvEEEELi1ELb1EE5__getB8ue170006Ev, symObjAddr: 0x83D4, symBinAddr: 0x100008C50, symSize: 0x14 }
  - { offsetInCU: 0x25DE3, offset: 0x25DE3, size: 0x8, addend: 0x0, symName: __ZNSt3__19allocatorINS_11__tree_nodeINS_12__value_typeINS_12basic_stringIcNS_11char_traitsIcEENS0_IcEEEEhEEPvEEE8allocateB8ue170006Em, symObjAddr: 0x83E8, symBinAddr: 0x100008C64, symSize: 0x58 }
  - { offsetInCU: 0x25E22, offset: 0x25E22, size: 0x8, addend: 0x0, symName: __ZNSt3__116allocator_traitsINS_9allocatorINS_11__tree_nodeINS_12__value_typeINS_12basic_stringIcNS_11char_traitsIcEENS1_IcEEEEhEEPvEEEEE8max_sizeB8ue170006ISC_vEEmRKSC_, symObjAddr: 0x8440, symBinAddr: 0x100008CBC, symSize: 0x24 }
  - { offsetInCU: 0x25E50, offset: 0x25E50, size: 0x8, addend: 0x0, symName: __ZNKSt3__19allocatorINS_11__tree_nodeINS_12__value_typeINS_12basic_stringIcNS_11char_traitsIcEENS0_IcEEEEhEEPvEEE8max_sizeB8ue170006Ev, symObjAddr: 0x84F8, symBinAddr: 0x100008D74, symSize: 0x14 }
  - { offsetInCU: 0x25E76, offset: 0x25E76, size: 0x8, addend: 0x0, symName: __ZNSt3__122__tree_node_destructorINS_9allocatorINS_11__tree_nodeINS_12__value_typeINS_12basic_stringIcNS_11char_traitsIcEENS1_IcEEEEhEEPvEEEEEC2B8ue170006ERSC_b, symObjAddr: 0x857C, symBinAddr: 0x100008DF8, symSize: 0x38 }
  - { offsetInCU: 0x25EBE, offset: 0x25EBE, size: 0x8, addend: 0x0, symName: __ZNSt3__110unique_ptrINS_11__tree_nodeINS_12__value_typeINS_12basic_stringIcNS_11char_traitsIcEENS_9allocatorIcEEEEhEEPvEENS_22__tree_node_destructorINS6_ISB_EEEEEC2B8ue170006ILb1EvEEPSB_NS_16__dependent_typeINS_27__unique_ptr_deleter_sfinaeISE_EEXT_EE20__good_rval_ref_typeE, symObjAddr: 0x85B4, symBinAddr: 0x100008E30, symSize: 0x48 }
  - { offsetInCU: 0x25F0F, offset: 0x25F0F, size: 0x8, addend: 0x0, symName: __ZNSt3__117__compressed_pairIPNS_11__tree_nodeINS_12__value_typeINS_12basic_stringIcNS_11char_traitsIcEENS_9allocatorIcEEEEhEEPvEENS_22__tree_node_destructorINS6_ISB_EEEEEC1B8ue170006IRSC_SF_EEOT_OT0_, symObjAddr: 0x85FC, symBinAddr: 0x100008E78, symSize: 0x3C }
  - { offsetInCU: 0x25F67, offset: 0x25F67, size: 0x8, addend: 0x0, symName: __ZNSt3__117__compressed_pairIPNS_11__tree_nodeINS_12__value_typeINS_12basic_stringIcNS_11char_traitsIcEENS_9allocatorIcEEEEhEEPvEENS_22__tree_node_destructorINS6_ISB_EEEEEC2B8ue170006IRSC_SF_EEOT_OT0_, symObjAddr: 0x8638, symBinAddr: 0x100008EB4, symSize: 0x48 }
  - { offsetInCU: 0x25FBF, offset: 0x25FBF, size: 0x8, addend: 0x0, symName: __ZNSt3__122__compressed_pair_elemIPNS_11__tree_nodeINS_12__value_typeINS_12basic_stringIcNS_11char_traitsIcEENS_9allocatorIcEEEEhEEPvEELi0ELb0EEC2B8ue170006IRSC_vEEOT_, symObjAddr: 0x8680, symBinAddr: 0x100008EFC, symSize: 0x24 }
  - { offsetInCU: 0x26001, offset: 0x26001, size: 0x8, addend: 0x0, symName: __ZNSt3__122__compressed_pair_elemINS_22__tree_node_destructorINS_9allocatorINS_11__tree_nodeINS_12__value_typeINS_12basic_stringIcNS_11char_traitsIcEENS2_IcEEEEhEEPvEEEEEELi1ELb0EEC2B8ue170006ISE_vEEOT_, symObjAddr: 0x86A4, symBinAddr: 0x100008F20, symSize: 0x24 }
  - { offsetInCU: 0x26043, offset: 0x26043, size: 0x8, addend: 0x0, symName: __ZNSt3__19allocatorINS_11__tree_nodeINS_12__value_typeINS_12basic_stringIcNS_11char_traitsIcEENS0_IcEEEEhEEPvEEE9constructB8ue170006INS_4pairIKS7_hEEJNSD_IS7_hEEEEEvPT_DpOT0_, symObjAddr: 0x86C8, symBinAddr: 0x100008F44, symSize: 0x30 }
  - { offsetInCU: 0x26099, offset: 0x26099, size: 0x8, addend: 0x0, symName: __ZNSt3__14pairIKNS_12basic_stringIcNS_11char_traitsIcEENS_9allocatorIcEEEEhEC1B8ue170006IS6_hLPv0EEEONS0_IT_T0_EE, symObjAddr: 0x86F8, symBinAddr: 0x100008F74, symSize: 0x34 }
  - { offsetInCU: 0x260EA, offset: 0x260EA, size: 0x8, addend: 0x0, symName: __ZNSt3__14pairIKNS_12basic_stringIcNS_11char_traitsIcEENS_9allocatorIcEEEEhEC2B8ue170006IS6_hLPv0EEEONS0_IT_T0_EE, symObjAddr: 0x872C, symBinAddr: 0x100008FA8, symSize: 0x40 }
  - { offsetInCU: 0x2613B, offset: 0x2613B, size: 0x8, addend: 0x0, symName: __ZNSt3__112__value_typeINS_12basic_stringIcNS_11char_traitsIcEENS_9allocatorIcEEEEhE11__get_valueB8ue170006Ev, symObjAddr: 0x876C, symBinAddr: 0x100008FE8, symSize: 0x24 }
  - { offsetInCU: 0x26161, offset: 0x26161, size: 0x8, addend: 0x0, symName: __ZNKSt3__117__compressed_pairIPNS_11__tree_nodeINS_12__value_typeINS_12basic_stringIcNS_11char_traitsIcEENS_9allocatorIcEEEEhEEPvEENS_22__tree_node_destructorINS6_ISB_EEEEE5firstB8ue170006Ev, symObjAddr: 0x87C8, symBinAddr: 0x100009044, symSize: 0x24 }
  - { offsetInCU: 0x26187, offset: 0x26187, size: 0x8, addend: 0x0, symName: __ZNKSt3__122__compressed_pair_elemIPNS_11__tree_nodeINS_12__value_typeINS_12basic_stringIcNS_11char_traitsIcEENS_9allocatorIcEEEEhEEPvEELi0ELb0EE5__getB8ue170006Ev, symObjAddr: 0x87EC, symBinAddr: 0x100009068, symSize: 0x14 }
  - { offsetInCU: 0x261AD, offset: 0x261AD, size: 0x8, addend: 0x0, symName: __ZNSt3__117__compressed_pairIPNS_11__tree_nodeINS_12__value_typeINS_12basic_stringIcNS_11char_traitsIcEENS_9allocatorIcEEEEhEEPvEENS_22__tree_node_destructorINS6_ISB_EEEEE6secondB8ue170006Ev, symObjAddr: 0x8800, symBinAddr: 0x10000907C, symSize: 0x28 }
  - { offsetInCU: 0x261D3, offset: 0x261D3, size: 0x8, addend: 0x0, symName: __ZNSt3__122__compressed_pair_elemINS_22__tree_node_destructorINS_9allocatorINS_11__tree_nodeINS_12__value_typeINS_12basic_stringIcNS_11char_traitsIcEENS2_IcEEEEhEEPvEEEEEELi1ELb0EE5__getB8ue170006Ev, symObjAddr: 0x8828, symBinAddr: 0x1000090A4, symSize: 0x14 }
  - { offsetInCU: 0x261F9, offset: 0x261F9, size: 0x8, addend: 0x0, symName: __ZNSt3__16__treeINS_12__value_typeINS_12basic_stringIcNS_11char_traitsIcEENS_9allocatorIcEEEEhEENS_19__map_value_compareIS7_S8_NS_4lessIS7_EELb1EEENS5_IS8_EEE4sizeB8ue170006Ev, symObjAddr: 0x8B68, symBinAddr: 0x1000093E4, symSize: 0x28 }
  - { offsetInCU: 0x2621F, offset: 0x2621F, size: 0x8, addend: 0x0, symName: __ZNKSt3__116__tree_node_baseIPvE15__parent_unsafeB8ue170006Ev, symObjAddr: 0x8B90, symBinAddr: 0x10000940C, symSize: 0x18 }
  - { offsetInCU: 0x26245, offset: 0x26245, size: 0x8, addend: 0x0, symName: __ZNSt3__116__tree_node_baseIPvE12__set_parentB8ue170006EPS2_, symObjAddr: 0x8D78, symBinAddr: 0x1000095F4, symSize: 0x20 }
  - { offsetInCU: 0x2627A, offset: 0x2627A, size: 0x8, addend: 0x0, symName: __ZNSt3__117__compressed_pairImNS_19__map_value_compareINS_12basic_stringIcNS_11char_traitsIcEENS_9allocatorIcEEEENS_12__value_typeIS7_hEENS_4lessIS7_EELb1EEEE5firstB8ue170006Ev, symObjAddr: 0x8D98, symBinAddr: 0x100009614, symSize: 0x24 }
  - { offsetInCU: 0x262A0, offset: 0x262A0, size: 0x8, addend: 0x0, symName: __ZNSt3__122__compressed_pair_elemImLi0ELb0EE5__getB8ue170006Ev, symObjAddr: 0x8DBC, symBinAddr: 0x100009638, symSize: 0x14 }
  - { offsetInCU: 0x262C6, offset: 0x262C6, size: 0x8, addend: 0x0, symName: __ZNSt3__117__compressed_pairIPNS_11__tree_nodeINS_12__value_typeINS_12basic_stringIcNS_11char_traitsIcEENS_9allocatorIcEEEEhEEPvEENS_22__tree_node_destructorINS6_ISB_EEEEE5firstB8ue170006Ev, symObjAddr: 0x8DD0, symBinAddr: 0x10000964C, symSize: 0x24 }
  - { offsetInCU: 0x262EC, offset: 0x262EC, size: 0x8, addend: 0x0, symName: __ZNSt3__122__compressed_pair_elemIPNS_11__tree_nodeINS_12__value_typeINS_12basic_stringIcNS_11char_traitsIcEENS_9allocatorIcEEEEhEEPvEELi0ELb0EE5__getB8ue170006Ev, symObjAddr: 0x8DF4, symBinAddr: 0x100009670, symSize: 0x14 }
  - { offsetInCU: 0x26312, offset: 0x26312, size: 0x8, addend: 0x0, symName: __ZNSt3__110unique_ptrINS_11__tree_nodeINS_12__value_typeINS_12basic_stringIcNS_11char_traitsIcEENS_9allocatorIcEEEEhEEPvEENS_22__tree_node_destructorINS6_ISB_EEEEED2B8ue170006Ev, symObjAddr: 0x8E08, symBinAddr: 0x100009684, symSize: 0x30 }
  - { offsetInCU: 0x2633C, offset: 0x2633C, size: 0x8, addend: 0x0, symName: __ZNSt3__110unique_ptrINS_11__tree_nodeINS_12__value_typeINS_12basic_stringIcNS_11char_traitsIcEENS_9allocatorIcEEEEhEEPvEENS_22__tree_node_destructorINS6_ISB_EEEEE5resetB8ue170006EPSB_, symObjAddr: 0x8E38, symBinAddr: 0x1000096B4, symSize: 0x78 }
  - { offsetInCU: 0x26380, offset: 0x26380, size: 0x8, addend: 0x0, symName: __ZNSt3__122__tree_node_destructorINS_9allocatorINS_11__tree_nodeINS_12__value_typeINS_12basic_stringIcNS_11char_traitsIcEENS1_IcEEEEhEEPvEEEEEclB8ue170006EPSB_, symObjAddr: 0x8EB0, symBinAddr: 0x10000972C, symSize: 0x98 }
  - { offsetInCU: 0x263B5, offset: 0x263B5, size: 0x8, addend: 0x0, symName: __ZNSt3__116allocator_traitsINS_9allocatorINS_11__tree_nodeINS_12__value_typeINS_12basic_stringIcNS_11char_traitsIcEENS1_IcEEEEhEEPvEEEEE7destroyB8ue170006INS_4pairIKS8_hEEvvEEvRSC_PT_, symObjAddr: 0x8F48, symBinAddr: 0x1000097C4, symSize: 0x28 }
  - { offsetInCU: 0x263EF, offset: 0x263EF, size: 0x8, addend: 0x0, symName: __ZNSt3__116allocator_traitsINS_9allocatorINS_11__tree_nodeINS_12__value_typeINS_12basic_stringIcNS_11char_traitsIcEENS1_IcEEEEhEEPvEEEEE10deallocateB8ue170006ERSC_PSB_m, symObjAddr: 0x8F70, symBinAddr: 0x1000097EC, symSize: 0x34 }
  - { offsetInCU: 0x26431, offset: 0x26431, size: 0x8, addend: 0x0, symName: __ZNSt3__14pairIKNS_12basic_stringIcNS_11char_traitsIcEENS_9allocatorIcEEEEhED1Ev, symObjAddr: 0x8FA4, symBinAddr: 0x100009820, symSize: 0x2C }
  - { offsetInCU: 0x2645D, offset: 0x2645D, size: 0x8, addend: 0x0, symName: __ZNSt3__14pairIKNS_12basic_stringIcNS_11char_traitsIcEENS_9allocatorIcEEEEhED2Ev, symObjAddr: 0x8FD0, symBinAddr: 0x10000984C, symSize: 0x2C }
  - { offsetInCU: 0x26489, offset: 0x26489, size: 0x8, addend: 0x0, symName: __ZNSt3__19allocatorINS_11__tree_nodeINS_12__value_typeINS_12basic_stringIcNS_11char_traitsIcEENS0_IcEEEEhEEPvEEE10deallocateB8ue170006EPSA_m, symObjAddr: 0x8FFC, symBinAddr: 0x100009878, symSize: 0x40 }
  - { offsetInCU: 0x264CB, offset: 0x264CB, size: 0x8, addend: 0x0, symName: __ZNSt3__115__tree_iteratorINS_12__value_typeINS_12basic_stringIcNS_11char_traitsIcEENS_9allocatorIcEEEEhEEPNS_11__tree_nodeIS8_PvEElEC2B8ue170006ESC_, symObjAddr: 0x9144, symBinAddr: 0x1000099C0, symSize: 0x20 }
  - { offsetInCU: 0x26504, offset: 0x26504, size: 0x8, addend: 0x0, symName: __ZNSt3__14pairINS_15__tree_iteratorINS_12__value_typeINS_12basic_stringIcNS_11char_traitsIcEENS_9allocatorIcEEEEhEEPNS_11__tree_nodeIS9_PvEElEEbEC2B8ue170006ISE_RbLSB_0EEEOT_OT0_, symObjAddr: 0x9164, symBinAddr: 0x1000099E0, symSize: 0x38 }
  - { offsetInCU: 0x26562, offset: 0x26562, size: 0x8, addend: 0x0, symName: __ZNSt3__14pairINS_14__map_iteratorINS_15__tree_iteratorINS_12__value_typeINS_12basic_stringIcNS_11char_traitsIcEENS_9allocatorIcEEEEhEEPNS_11__tree_nodeISA_PvEElEEEEbEC2B8ue170006ISF_bLSC_0EEEONS0_IT_T0_EE, symObjAddr: 0x919C, symBinAddr: 0x100009A18, symSize: 0x50 }
  - { offsetInCU: 0x265B3, offset: 0x265B3, size: 0x8, addend: 0x0, symName: __ZNSt3__114__map_iteratorINS_15__tree_iteratorINS_12__value_typeINS_12basic_stringIcNS_11char_traitsIcEENS_9allocatorIcEEEEhEEPNS_11__tree_nodeIS9_PvEElEEEC1B8ue170006ESE_, symObjAddr: 0x91EC, symBinAddr: 0x100009A68, symSize: 0x34 }
  - { offsetInCU: 0x265EC, offset: 0x265EC, size: 0x8, addend: 0x0, symName: __ZNSt3__114__map_iteratorINS_15__tree_iteratorINS_12__value_typeINS_12basic_stringIcNS_11char_traitsIcEENS_9allocatorIcEEEEhEEPNS_11__tree_nodeIS9_PvEElEEEC2B8ue170006ESE_, symObjAddr: 0x9220, symBinAddr: 0x100009A9C, symSize: 0x20 }
  - { offsetInCU: 0x2662B, offset: 0x2662B, size: 0x8, addend: 0x0, symName: __ZNSt3__14pairINS_12basic_stringIcNS_11char_traitsIcEENS_9allocatorIcEEEEhEC1B8ue170006IRKS6_hLPv0EEEOT_OT0_, symObjAddr: 0x9240, symBinAddr: 0x100009ABC, symSize: 0x3C }
  - { offsetInCU: 0x26689, offset: 0x26689, size: 0x8, addend: 0x0, symName: __ZNSt3__14pairINS_12basic_stringIcNS_11char_traitsIcEENS_9allocatorIcEEEEhEC2B8ue170006IRKS6_hLPv0EEEOT_OT0_, symObjAddr: 0x927C, symBinAddr: 0x100009AF8, symSize: 0x44 }
  - { offsetInCU: 0x266E7, offset: 0x266E7, size: 0x8, addend: 0x0, symName: __ZNSt3__14pairINS_12basic_stringIcNS_11char_traitsIcEENS_9allocatorIcEEEEhED2Ev, symObjAddr: 0x92C0, symBinAddr: 0x100009B3C, symSize: 0x2C }
  - { offsetInCU: 0x26713, offset: 0x26713, size: 0x8, addend: 0x0, symName: __ZNSt3__16vectorIP4NodeINS_12basic_stringIcNS_11char_traitsIcEENS_9allocatorIcEEEES7_ENS5_IS9_EEEC2B8ue170006Ev, symObjAddr: 0x92EC, symBinAddr: 0x100009B68, symSize: 0x4C }
  - { offsetInCU: 0x26749, offset: 0x26749, size: 0x8, addend: 0x0, symName: __ZNSt3__117__compressed_pairIPP4NodeINS_12basic_stringIcNS_11char_traitsIcEENS_9allocatorIcEEEES7_ENS5_IS9_EEEC1B8ue170006IDnNS_18__default_init_tagEEEOT_OT0_, symObjAddr: 0x9338, symBinAddr: 0x100009BB4, symSize: 0x3C }
  - { offsetInCU: 0x267A1, offset: 0x267A1, size: 0x8, addend: 0x0, symName: __ZNSt3__117__compressed_pairIPP4NodeINS_12basic_stringIcNS_11char_traitsIcEENS_9allocatorIcEEEES7_ENS5_IS9_EEEC2B8ue170006IDnNS_18__default_init_tagEEEOT_OT0_, symObjAddr: 0x9374, symBinAddr: 0x100009BF0, symSize: 0x40 }
  - { offsetInCU: 0x267F9, offset: 0x267F9, size: 0x8, addend: 0x0, symName: __ZNSt3__122__compressed_pair_elemIPP4NodeINS_12basic_stringIcNS_11char_traitsIcEENS_9allocatorIcEEEES7_ELi0ELb0EEC2B8ue170006IDnvEEOT_, symObjAddr: 0x93B4, symBinAddr: 0x100009C30, symSize: 0x1C }
  - { offsetInCU: 0x2683B, offset: 0x2683B, size: 0x8, addend: 0x0, symName: __ZNSt3__122__compressed_pair_elemINS_9allocatorIP4NodeINS_12basic_stringIcNS_11char_traitsIcEENS1_IcEEEES7_EEELi1ELb1EEC2B8ue170006ENS_18__default_init_tagE, symObjAddr: 0x93D0, symBinAddr: 0x100009C4C, symSize: 0x2C }
  - { offsetInCU: 0x26870, offset: 0x26870, size: 0x8, addend: 0x0, symName: __ZNSt3__19allocatorIP4NodeINS_12basic_stringIcNS_11char_traitsIcEENS0_IcEEEES6_EEC2B8ue170006Ev, symObjAddr: 0x93FC, symBinAddr: 0x100009C78, symSize: 0x2C }
  - { offsetInCU: 0x2689A, offset: 0x2689A, size: 0x8, addend: 0x0, symName: __ZNSt3__116__non_trivial_ifILb1ENS_9allocatorIP4NodeINS_12basic_stringIcNS_11char_traitsIcEENS1_IcEEEES7_EEEEC2B8ue170006Ev, symObjAddr: 0x9428, symBinAddr: 0x100009CA4, symSize: 0x14 }
  - { offsetInCU: 0x268C4, offset: 0x268C4, size: 0x8, addend: 0x0, symName: __ZNSt3__16vectorIP4NodeINS_12basic_stringIcNS_11char_traitsIcEENS_9allocatorIcEEEES7_ENS5_IS9_EEE9__end_capB8ue170006Ev, symObjAddr: 0x943C, symBinAddr: 0x100009CB8, symSize: 0x28 }
  - { offsetInCU: 0x268EA, offset: 0x268EA, size: 0x8, addend: 0x0, symName: __ZNSt3__16vectorIP4NodeINS_12basic_stringIcNS_11char_traitsIcEENS_9allocatorIcEEEES7_ENS5_IS9_EEE22__construct_one_at_endB8ue170006IJRKS9_EEEvDpOT_, symObjAddr: 0x9464, symBinAddr: 0x100009CE0, symSize: 0x90 }
  - { offsetInCU: 0x26939, offset: 0x26939, size: 0x8, addend: 0x0, symName: __ZNSt3__16vectorIP4NodeINS_12basic_stringIcNS_11char_traitsIcEENS_9allocatorIcEEEES7_ENS5_IS9_EEE21__push_back_slow_pathIRKS9_EEvOT_, symObjAddr: 0x94F4, symBinAddr: 0x100009D70, symSize: 0xD8 }
  - { offsetInCU: 0x26997, offset: 0x26997, size: 0x8, addend: 0x0, symName: __ZNSt3__117__compressed_pairIPP4NodeINS_12basic_stringIcNS_11char_traitsIcEENS_9allocatorIcEEEES7_ENS5_IS9_EEE5firstB8ue170006Ev, symObjAddr: 0x95CC, symBinAddr: 0x100009E48, symSize: 0x24 }
  - { offsetInCU: 0x269BD, offset: 0x269BD, size: 0x8, addend: 0x0, symName: __ZNSt3__122__compressed_pair_elemIPP4NodeINS_12basic_stringIcNS_11char_traitsIcEENS_9allocatorIcEEEES7_ELi0ELb0EE5__getB8ue170006Ev, symObjAddr: 0x95F0, symBinAddr: 0x100009E6C, symSize: 0x14 }
  - { offsetInCU: 0x269FE, offset: 0x269FE, size: 0x8, addend: 0x0, symName: __ZNSt3__16vectorIP4NodeINS_12basic_stringIcNS_11char_traitsIcEENS_9allocatorIcEEEES7_ENS5_IS9_EEE21_ConstructTransactionC1B8ue170006ERSB_m, symObjAddr: 0x9604, symBinAddr: 0x100009E80, symSize: 0x3C }
  - { offsetInCU: 0x26A46, offset: 0x26A46, size: 0x8, addend: 0x0, symName: __ZNSt3__116allocator_traitsINS_9allocatorIP4NodeINS_12basic_stringIcNS_11char_traitsIcEENS1_IcEEEES7_EEEE9constructB8ue170006IS9_JRKS9_EvEEvRSA_PT_DpOT0_, symObjAddr: 0x9640, symBinAddr: 0x100009EBC, symSize: 0x34 }
  - { offsetInCU: 0x26A9D, offset: 0x26A9D, size: 0x8, addend: 0x0, symName: __ZNSt3__16vectorIP4NodeINS_12basic_stringIcNS_11char_traitsIcEENS_9allocatorIcEEEES7_ENS5_IS9_EEE7__allocB8ue170006Ev, symObjAddr: 0x9674, symBinAddr: 0x100009EF0, symSize: 0x28 }
  - { offsetInCU: 0x26AC3, offset: 0x26AC3, size: 0x8, addend: 0x0, symName: __ZNSt3__16vectorIP4NodeINS_12basic_stringIcNS_11char_traitsIcEENS_9allocatorIcEEEES7_ENS5_IS9_EEE21_ConstructTransactionD1B8ue170006Ev, symObjAddr: 0x96B0, symBinAddr: 0x100009F2C, symSize: 0x2C }
  - { offsetInCU: 0x26AED, offset: 0x26AED, size: 0x8, addend: 0x0, symName: __ZNSt3__16vectorIP4NodeINS_12basic_stringIcNS_11char_traitsIcEENS_9allocatorIcEEEES7_ENS5_IS9_EEE21_ConstructTransactionC2B8ue170006ERSB_m, symObjAddr: 0x96DC, symBinAddr: 0x100009F58, symSize: 0x44 }
  - { offsetInCU: 0x26B35, offset: 0x26B35, size: 0x8, addend: 0x0, symName: __ZNSt3__19allocatorIP4NodeINS_12basic_stringIcNS_11char_traitsIcEENS0_IcEEEES6_EE9constructB8ue170006IS8_JRKS8_EEEvPT_DpOT0_, symObjAddr: 0x9720, symBinAddr: 0x100009F9C, symSize: 0x28 }
  - { offsetInCU: 0x26B8B, offset: 0x26B8B, size: 0x8, addend: 0x0, symName: __ZNSt3__117__compressed_pairIPP4NodeINS_12basic_stringIcNS_11char_traitsIcEENS_9allocatorIcEEEES7_ENS5_IS9_EEE6secondB8ue170006Ev, symObjAddr: 0x9748, symBinAddr: 0x100009FC4, symSize: 0x24 }
  - { offsetInCU: 0x26BB1, offset: 0x26BB1, size: 0x8, addend: 0x0, symName: __ZNSt3__122__compressed_pair_elemINS_9allocatorIP4NodeINS_12basic_stringIcNS_11char_traitsIcEENS1_IcEEEES7_EEELi1ELb1EE5__getB8ue170006Ev, symObjAddr: 0x976C, symBinAddr: 0x100009FE8, symSize: 0x14 }
  - { offsetInCU: 0x26BD7, offset: 0x26BD7, size: 0x8, addend: 0x0, symName: __ZNSt3__16vectorIP4NodeINS_12basic_stringIcNS_11char_traitsIcEENS_9allocatorIcEEEES7_ENS5_IS9_EEE21_ConstructTransactionD2B8ue170006Ev, symObjAddr: 0x9780, symBinAddr: 0x100009FFC, symSize: 0x20 }
  - { offsetInCU: 0x26C01, offset: 0x26C01, size: 0x8, addend: 0x0, symName: __ZNKSt3__16vectorIP4NodeINS_12basic_stringIcNS_11char_traitsIcEENS_9allocatorIcEEEES7_ENS5_IS9_EEE11__recommendB8ue170006Em, symObjAddr: 0x97A0, symBinAddr: 0x10000A01C, symSize: 0xB4 }
  - { offsetInCU: 0x26C56, offset: 0x26C56, size: 0x8, addend: 0x0, symName: __ZNSt3__114__split_bufferIP4NodeINS_12basic_stringIcNS_11char_traitsIcEENS_9allocatorIcEEEES7_ERNS5_IS9_EEEC1EmmSB_, symObjAddr: 0x9854, symBinAddr: 0x10000A0D0, symSize: 0x44 }
  - { offsetInCU: 0x26CAC, offset: 0x26CAC, size: 0x8, addend: 0x0, symName: __ZNSt3__114__split_bufferIP4NodeINS_12basic_stringIcNS_11char_traitsIcEENS_9allocatorIcEEEES7_ERNS5_IS9_EEED1Ev, symObjAddr: 0x99A8, symBinAddr: 0x10000A224, symSize: 0x2C }
  - { offsetInCU: 0x26CD8, offset: 0x26CD8, size: 0x8, addend: 0x0, symName: __ZNKSt3__16vectorIP4NodeINS_12basic_stringIcNS_11char_traitsIcEENS_9allocatorIcEEEES7_ENS5_IS9_EEE8max_sizeEv, symObjAddr: 0x99D4, symBinAddr: 0x10000A250, symSize: 0x60 }
  - { offsetInCU: 0x26D00, offset: 0x26D00, size: 0x8, addend: 0x0, symName: __ZNKSt3__16vectorIP4NodeINS_12basic_stringIcNS_11char_traitsIcEENS_9allocatorIcEEEES7_ENS5_IS9_EEE20__throw_length_errorB8ue170006Ev, symObjAddr: 0x9A34, symBinAddr: 0x10000A2B0, symSize: 0x1C }
  - { offsetInCU: 0x26D26, offset: 0x26D26, size: 0x8, addend: 0x0, symName: __ZNKSt3__16vectorIP4NodeINS_12basic_stringIcNS_11char_traitsIcEENS_9allocatorIcEEEES7_ENS5_IS9_EEE8capacityB8ue170006Ev, symObjAddr: 0x9A50, symBinAddr: 0x10000A2CC, symSize: 0x40 }
  - { offsetInCU: 0x26D57, offset: 0x26D57, size: 0x8, addend: 0x0, symName: __ZNSt3__116allocator_traitsINS_9allocatorIP4NodeINS_12basic_stringIcNS_11char_traitsIcEENS1_IcEEEES7_EEEE8max_sizeB8ue170006ISA_vEEmRKSA_, symObjAddr: 0x9ABC, symBinAddr: 0x10000A338, symSize: 0x24 }
  - { offsetInCU: 0x26D85, offset: 0x26D85, size: 0x8, addend: 0x0, symName: __ZNKSt3__16vectorIP4NodeINS_12basic_stringIcNS_11char_traitsIcEENS_9allocatorIcEEEES7_ENS5_IS9_EEE7__allocB8ue170006Ev, symObjAddr: 0x9AE0, symBinAddr: 0x10000A35C, symSize: 0x28 }
  - { offsetInCU: 0x26DAB, offset: 0x26DAB, size: 0x8, addend: 0x0, symName: __ZNSt3__114numeric_limitsIlE3maxB8ue170006Ev, symObjAddr: 0x9B08, symBinAddr: 0x10000A384, symSize: 0x14 }
  - { offsetInCU: 0x26DBF, offset: 0x26DBF, size: 0x8, addend: 0x0, symName: __ZNKSt3__19allocatorIP4NodeINS_12basic_stringIcNS_11char_traitsIcEENS0_IcEEEES6_EE8max_sizeB8ue170006Ev, symObjAddr: 0x9B1C, symBinAddr: 0x10000A398, symSize: 0x14 }
  - { offsetInCU: 0x26DE5, offset: 0x26DE5, size: 0x8, addend: 0x0, symName: __ZNKSt3__117__compressed_pairIPP4NodeINS_12basic_stringIcNS_11char_traitsIcEENS_9allocatorIcEEEES7_ENS5_IS9_EEE6secondB8ue170006Ev, symObjAddr: 0x9B30, symBinAddr: 0x10000A3AC, symSize: 0x24 }
  - { offsetInCU: 0x26E0B, offset: 0x26E0B, size: 0x8, addend: 0x0, symName: __ZNKSt3__122__compressed_pair_elemINS_9allocatorIP4NodeINS_12basic_stringIcNS_11char_traitsIcEENS1_IcEEEES7_EEELi1ELb1EE5__getB8ue170006Ev, symObjAddr: 0x9B54, symBinAddr: 0x10000A3D0, symSize: 0x14 }
  - { offsetInCU: 0x26E31, offset: 0x26E31, size: 0x8, addend: 0x0, symName: __ZNSt3__123__libcpp_numeric_limitsIlLb1EE3maxB8ue170006Ev, symObjAddr: 0x9B68, symBinAddr: 0x10000A3E4, symSize: 0x8 }
  - { offsetInCU: 0x26E45, offset: 0x26E45, size: 0x8, addend: 0x0, symName: __ZNSt12length_errorC1B8ue170006EPKc, symObjAddr: 0x9BD4, symBinAddr: 0x10000A450, symSize: 0x34 }
  - { offsetInCU: 0x26E7D, offset: 0x26E7D, size: 0x8, addend: 0x0, symName: __ZNSt12length_errorC2B8ue170006EPKc, symObjAddr: 0x9C08, symBinAddr: 0x10000A484, symSize: 0x4C }
  - { offsetInCU: 0x26EB5, offset: 0x26EB5, size: 0x8, addend: 0x0, symName: __ZNKSt3__16vectorIP4NodeINS_12basic_stringIcNS_11char_traitsIcEENS_9allocatorIcEEEES7_ENS5_IS9_EEE9__end_capB8ue170006Ev, symObjAddr: 0x9C54, symBinAddr: 0x10000A4D0, symSize: 0x28 }
  - { offsetInCU: 0x26EDB, offset: 0x26EDB, size: 0x8, addend: 0x0, symName: __ZNKSt3__117__compressed_pairIPP4NodeINS_12basic_stringIcNS_11char_traitsIcEENS_9allocatorIcEEEES7_ENS5_IS9_EEE5firstB8ue170006Ev, symObjAddr: 0x9C7C, symBinAddr: 0x10000A4F8, symSize: 0x24 }
  - { offsetInCU: 0x26F01, offset: 0x26F01, size: 0x8, addend: 0x0, symName: __ZNKSt3__122__compressed_pair_elemIPP4NodeINS_12basic_stringIcNS_11char_traitsIcEENS_9allocatorIcEEEES7_ELi0ELb0EE5__getB8ue170006Ev, symObjAddr: 0x9CA0, symBinAddr: 0x10000A51C, symSize: 0x14 }
  - { offsetInCU: 0x26F27, offset: 0x26F27, size: 0x8, addend: 0x0, symName: __ZNSt3__114__split_bufferIP4NodeINS_12basic_stringIcNS_11char_traitsIcEENS_9allocatorIcEEEES7_ERNS5_IS9_EEEC2EmmSB_, symObjAddr: 0x9D08, symBinAddr: 0x10000A584, symSize: 0xD4 }
  - { offsetInCU: 0x26F9B, offset: 0x26F9B, size: 0x8, addend: 0x0, symName: __ZNSt3__117__compressed_pairIPP4NodeINS_12basic_stringIcNS_11char_traitsIcEENS_9allocatorIcEEEES7_ERNS5_IS9_EEEC1B8ue170006IDnSC_EEOT_OT0_, symObjAddr: 0x9DDC, symBinAddr: 0x10000A658, symSize: 0x3C }
  - { offsetInCU: 0x26FF3, offset: 0x26FF3, size: 0x8, addend: 0x0, symName: __ZNSt3__114__split_bufferIP4NodeINS_12basic_stringIcNS_11char_traitsIcEENS_9allocatorIcEEEES7_ERNS5_IS9_EEE7__allocB8ue170006Ev, symObjAddr: 0x9E58, symBinAddr: 0x10000A6D4, symSize: 0x28 }
  - { offsetInCU: 0x27019, offset: 0x27019, size: 0x8, addend: 0x0, symName: __ZNSt3__114__split_bufferIP4NodeINS_12basic_stringIcNS_11char_traitsIcEENS_9allocatorIcEEEES7_ERNS5_IS9_EEE9__end_capB8ue170006Ev, symObjAddr: 0x9E80, symBinAddr: 0x10000A6FC, symSize: 0x28 }
  - { offsetInCU: 0x2703F, offset: 0x2703F, size: 0x8, addend: 0x0, symName: __ZNSt3__117__compressed_pairIPP4NodeINS_12basic_stringIcNS_11char_traitsIcEENS_9allocatorIcEEEES7_ERNS5_IS9_EEEC2B8ue170006IDnSC_EEOT_OT0_, symObjAddr: 0x9EA8, symBinAddr: 0x10000A724, symSize: 0x48 }
  - { offsetInCU: 0x27097, offset: 0x27097, size: 0x8, addend: 0x0, symName: __ZNSt3__122__compressed_pair_elemIRNS_9allocatorIP4NodeINS_12basic_stringIcNS_11char_traitsIcEENS1_IcEEEES7_EEELi1ELb0EEC2B8ue170006ISB_vEEOT_, symObjAddr: 0x9EF0, symBinAddr: 0x10000A76C, symSize: 0x20 }
  - { offsetInCU: 0x270D9, offset: 0x270D9, size: 0x8, addend: 0x0, symName: __ZNSt3__19allocatorIP4NodeINS_12basic_stringIcNS_11char_traitsIcEENS0_IcEEEES6_EE8allocateB8ue170006Em, symObjAddr: 0x9F10, symBinAddr: 0x10000A78C, symSize: 0x58 }
  - { offsetInCU: 0x2710D, offset: 0x2710D, size: 0x8, addend: 0x0, symName: __ZNSt3__117__compressed_pairIPP4NodeINS_12basic_stringIcNS_11char_traitsIcEENS_9allocatorIcEEEES7_ERNS5_IS9_EEE6secondB8ue170006Ev, symObjAddr: 0x9F68, symBinAddr: 0x10000A7E4, symSize: 0x28 }
  - { offsetInCU: 0x27133, offset: 0x27133, size: 0x8, addend: 0x0, symName: __ZNSt3__122__compressed_pair_elemIRNS_9allocatorIP4NodeINS_12basic_stringIcNS_11char_traitsIcEENS1_IcEEEES7_EEELi1ELb0EE5__getB8ue170006Ev, symObjAddr: 0x9F90, symBinAddr: 0x10000A80C, symSize: 0x18 }
  - { offsetInCU: 0x27159, offset: 0x27159, size: 0x8, addend: 0x0, symName: __ZNSt3__117__compressed_pairIPP4NodeINS_12basic_stringIcNS_11char_traitsIcEENS_9allocatorIcEEEES7_ERNS5_IS9_EEE5firstB8ue170006Ev, symObjAddr: 0x9FA8, symBinAddr: 0x10000A824, symSize: 0x24 }
  - { offsetInCU: 0x2717F, offset: 0x2717F, size: 0x8, addend: 0x0, symName: __ZNKSt3__16vectorIP4NodeINS_12basic_stringIcNS_11char_traitsIcEENS_9allocatorIcEEEES7_ENS5_IS9_EEE17__annotate_deleteB8ue170006Ev, symObjAddr: 0x9FCC, symBinAddr: 0x10000A848, symSize: 0xB8 }
  - { offsetInCU: 0x271A5, offset: 0x271A5, size: 0x8, addend: 0x0, symName: __ZNSt3__116reverse_iteratorIPP4NodeINS_12basic_stringIcNS_11char_traitsIcEENS_9allocatorIcEEEES7_EEC1B8ue170006ESA_, symObjAddr: 0xA0FC, symBinAddr: 0x10000A978, symSize: 0x34 }
  - { offsetInCU: 0x271DD, offset: 0x271DD, size: 0x8, addend: 0x0, symName: __ZNKSt3__116reverse_iteratorIPP4NodeINS_12basic_stringIcNS_11char_traitsIcEENS_9allocatorIcEEEES7_EE4baseB8ue170006Ev, symObjAddr: 0xA130, symBinAddr: 0x10000A9AC, symSize: 0x18 }
  - { offsetInCU: 0x27203, offset: 0x27203, size: 0x8, addend: 0x0, symName: __ZNKSt3__16vectorIP4NodeINS_12basic_stringIcNS_11char_traitsIcEENS_9allocatorIcEEEES7_ENS5_IS9_EEE14__annotate_newB8ue170006Em, symObjAddr: 0xA184, symBinAddr: 0x10000AA00, symSize: 0xAC }
  - { offsetInCU: 0x27238, offset: 0x27238, size: 0x8, addend: 0x0, symName: __ZNKSt3__16vectorIP4NodeINS_12basic_stringIcNS_11char_traitsIcEENS_9allocatorIcEEEES7_ENS5_IS9_EEE31__annotate_contiguous_containerB8ue170006EPKvSD_SD_SD_, symObjAddr: 0xA230, symBinAddr: 0x10000AAAC, symSize: 0x20 }
  - { offsetInCU: 0x2728A, offset: 0x2728A, size: 0x8, addend: 0x0, symName: __ZNKSt3__16vectorIP4NodeINS_12basic_stringIcNS_11char_traitsIcEENS_9allocatorIcEEEES7_ENS5_IS9_EEE4dataB8ue170006Ev, symObjAddr: 0xA250, symBinAddr: 0x10000AACC, symSize: 0x28 }
  - { offsetInCU: 0x272D6, offset: 0x272D6, size: 0x8, addend: 0x0, symName: __ZNKSt3__111__move_loopINS_17_ClassicAlgPolicyEEclB8ue170006INS_16reverse_iteratorIPP4NodeINS_12basic_stringIcNS_11char_traitsIcEENS_9allocatorIcEEEESB_EEESF_SF_EENS_4pairIT_T1_EESH_T0_SI_, symObjAddr: 0xA568, symBinAddr: 0x10000ADE4, symSize: 0xA0 }
  - { offsetInCU: 0x27347, offset: 0x27347, size: 0x8, addend: 0x0, symName: __ZNSt3__18_IterOpsINS_17_ClassicAlgPolicyEE11__iter_moveB8ue170006IRNS_16reverse_iteratorIPP4NodeINS_12basic_stringIcNS_11char_traitsIcEENS_9allocatorIcEEEESB_EEEEENS_9enable_ifIXsr12is_referenceIDTdeclsr3stdE7declvalIRT_EEEEE5valueEDTclsr3stdE4movedeclsr3stdE7declvalISJ_EEEEE4typeEOSI_, symObjAddr: 0xA79C, symBinAddr: 0x10000B018, symSize: 0x28 }
  - { offsetInCU: 0x27373, offset: 0x27373, size: 0x8, addend: 0x0, symName: __ZNKSt3__116reverse_iteratorIPP4NodeINS_12basic_stringIcNS_11char_traitsIcEENS_9allocatorIcEEEES7_EEdeB8ue170006Ev, symObjAddr: 0xA7C4, symBinAddr: 0x10000B040, symSize: 0x28 }
  - { offsetInCU: 0x273A8, offset: 0x273A8, size: 0x8, addend: 0x0, symName: __ZNSt3__116reverse_iteratorIPP4NodeINS_12basic_stringIcNS_11char_traitsIcEENS_9allocatorIcEEEES7_EEppB8ue170006Ev, symObjAddr: 0xA7EC, symBinAddr: 0x10000B068, symSize: 0x20 }
  - { offsetInCU: 0x273CE, offset: 0x273CE, size: 0x8, addend: 0x0, symName: __ZNSt3__18_IterOpsINS_17_ClassicAlgPolicyEE25__validate_iter_referenceB8ue170006IRNS_16reverse_iteratorIPP4NodeINS_12basic_stringIcNS_11char_traitsIcEENS_9allocatorIcEEEESB_EEEEEvv, symObjAddr: 0xA80C, symBinAddr: 0x10000B088, symSize: 0x4 }
  - { offsetInCU: 0x273EC, offset: 0x273EC, size: 0x8, addend: 0x0, symName: __ZNSt3__118__unwrap_iter_implINS_16reverse_iteratorIPP4NodeINS_12basic_stringIcNS_11char_traitsIcEENS_9allocatorIcEEEES8_EEELb0EE8__unwrapB8ue170006ESC_, symObjAddr: 0xA810, symBinAddr: 0x10000B08C, symSize: 0x24 }
  - { offsetInCU: 0x27415, offset: 0x27415, size: 0x8, addend: 0x0, symName: __ZNSt3__14pairINS_16reverse_iteratorIPP4NodeINS_12basic_stringIcNS_11char_traitsIcEENS_9allocatorIcEEEES8_EEESC_EC1B8ue170006ISC_SC_LPv0EEEOT_OT0_, symObjAddr: 0xA834, symBinAddr: 0x10000B0B0, symSize: 0x3C }
  - { offsetInCU: 0x27473, offset: 0x27473, size: 0x8, addend: 0x0, symName: __ZNSt3__14pairINS_16reverse_iteratorIPP4NodeINS_12basic_stringIcNS_11char_traitsIcEENS_9allocatorIcEEEES8_EEESC_EC2B8ue170006ISC_SC_LPv0EEEOT_OT0_, symObjAddr: 0xA870, symBinAddr: 0x10000B0EC, symSize: 0x34 }
  - { offsetInCU: 0x274D1, offset: 0x274D1, size: 0x8, addend: 0x0, symName: __ZNSt3__118__unwrap_iter_implINS_16reverse_iteratorIPP4NodeINS_12basic_stringIcNS_11char_traitsIcEENS_9allocatorIcEEEES8_EEELb0EE8__rewrapB8ue170006ESC_SC_, symObjAddr: 0xA8A4, symBinAddr: 0x10000B120, symSize: 0x2C }
  - { offsetInCU: 0x274FF, offset: 0x274FF, size: 0x8, addend: 0x0, symName: __ZNSt3__116reverse_iteratorIPP4NodeINS_12basic_stringIcNS_11char_traitsIcEENS_9allocatorIcEEEES7_EEC2B8ue170006ESA_, symObjAddr: 0xA8D0, symBinAddr: 0x10000B14C, symSize: 0x28 }
  - { offsetInCU: 0x27537, offset: 0x27537, size: 0x8, addend: 0x0, symName: __ZNSt3__114__split_bufferIP4NodeINS_12basic_stringIcNS_11char_traitsIcEENS_9allocatorIcEEEES7_ERNS5_IS9_EEED2Ev, symObjAddr: 0xA8F8, symBinAddr: 0x10000B174, symSize: 0x8C }
  - { offsetInCU: 0x27563, offset: 0x27563, size: 0x8, addend: 0x0, symName: __ZNSt3__114__split_bufferIP4NodeINS_12basic_stringIcNS_11char_traitsIcEENS_9allocatorIcEEEES7_ERNS5_IS9_EEE5clearB8ue170006Ev, symObjAddr: 0xA984, symBinAddr: 0x10000B200, symSize: 0x28 }
  - { offsetInCU: 0x27589, offset: 0x27589, size: 0x8, addend: 0x0, symName: __ZNSt3__116allocator_traitsINS_9allocatorIP4NodeINS_12basic_stringIcNS_11char_traitsIcEENS1_IcEEEES7_EEEE10deallocateB8ue170006ERSA_PS9_m, symObjAddr: 0xA9AC, symBinAddr: 0x10000B228, symSize: 0x34 }
  - { offsetInCU: 0x275CB, offset: 0x275CB, size: 0x8, addend: 0x0, symName: __ZNKSt3__114__split_bufferIP4NodeINS_12basic_stringIcNS_11char_traitsIcEENS_9allocatorIcEEEES7_ERNS5_IS9_EEE8capacityB8ue170006Ev, symObjAddr: 0xA9E0, symBinAddr: 0x10000B25C, symSize: 0x40 }
  - { offsetInCU: 0x275F1, offset: 0x275F1, size: 0x8, addend: 0x0, symName: __ZNSt3__114__split_bufferIP4NodeINS_12basic_stringIcNS_11char_traitsIcEENS_9allocatorIcEEEES7_ERNS5_IS9_EEE17__destruct_at_endB8ue170006EPS9_, symObjAddr: 0xAA20, symBinAddr: 0x10000B29C, symSize: 0x2C }
  - { offsetInCU: 0x27625, offset: 0x27625, size: 0x8, addend: 0x0, symName: __ZNSt3__114__split_bufferIP4NodeINS_12basic_stringIcNS_11char_traitsIcEENS_9allocatorIcEEEES7_ERNS5_IS9_EEE17__destruct_at_endB8ue170006EPS9_NS_17integral_constantIbLb0EEE, symObjAddr: 0xAA4C, symBinAddr: 0x10000B2C8, symSize: 0x80 }
  - { offsetInCU: 0x27666, offset: 0x27666, size: 0x8, addend: 0x0, symName: __ZNSt3__116allocator_traitsINS_9allocatorIP4NodeINS_12basic_stringIcNS_11char_traitsIcEENS1_IcEEEES7_EEEE7destroyB8ue170006IS9_vEEvRSA_PT_, symObjAddr: 0xAACC, symBinAddr: 0x10000B348, symSize: 0x2C }
  - { offsetInCU: 0x276A3, offset: 0x276A3, size: 0x8, addend: 0x0, symName: __ZNSt3__19allocatorIP4NodeINS_12basic_stringIcNS_11char_traitsIcEENS0_IcEEEES6_EE7destroyB8ue170006EPS8_, symObjAddr: 0xAAF8, symBinAddr: 0x10000B374, symSize: 0x14 }
  - { offsetInCU: 0x276D7, offset: 0x276D7, size: 0x8, addend: 0x0, symName: __ZNSt3__19allocatorIP4NodeINS_12basic_stringIcNS_11char_traitsIcEENS0_IcEEEES6_EE10deallocateB8ue170006EPS8_m, symObjAddr: 0xAB0C, symBinAddr: 0x10000B388, symSize: 0x40 }
  - { offsetInCU: 0x27719, offset: 0x27719, size: 0x8, addend: 0x0, symName: __ZNKSt3__114__split_bufferIP4NodeINS_12basic_stringIcNS_11char_traitsIcEENS_9allocatorIcEEEES7_ERNS5_IS9_EEE9__end_capB8ue170006Ev, symObjAddr: 0xAB4C, symBinAddr: 0x10000B3C8, symSize: 0x28 }
  - { offsetInCU: 0x2773F, offset: 0x2773F, size: 0x8, addend: 0x0, symName: __ZNKSt3__117__compressed_pairIPP4NodeINS_12basic_stringIcNS_11char_traitsIcEENS_9allocatorIcEEEES7_ERNS5_IS9_EEE5firstB8ue170006Ev, symObjAddr: 0xAB74, symBinAddr: 0x10000B3F0, symSize: 0x24 }
  - { offsetInCU: 0x27765, offset: 0x27765, size: 0x8, addend: 0x0, symName: __ZNSt3__112basic_stringIcNS_11char_traitsIcEENS_9allocatorIcEEEC2B8ue170006Emc, symObjAddr: 0xAB98, symBinAddr: 0x10000B414, symSize: 0x4C }
  - { offsetInCU: 0x277AD, offset: 0x277AD, size: 0x8, addend: 0x0, symName: __ZNSt3__117__compressed_pairINS_12basic_stringIcNS_11char_traitsIcEENS_9allocatorIcEEE5__repES5_EC1B8ue170006INS_18__default_init_tagESA_EEOT_OT0_, symObjAddr: 0xABE4, symBinAddr: 0x10000B460, symSize: 0x3C }
  - { offsetInCU: 0x27805, offset: 0x27805, size: 0x8, addend: 0x0, symName: __ZNSt3__117__compressed_pairINS_12basic_stringIcNS_11char_traitsIcEENS_9allocatorIcEEE5__repES5_EC2B8ue170006INS_18__default_init_tagESA_EEOT_OT0_, symObjAddr: 0xAC20, symBinAddr: 0x10000B49C, symSize: 0x3C }
  - { offsetInCU: 0x2785D, offset: 0x2785D, size: 0x8, addend: 0x0, symName: __ZNSt3__122__compressed_pair_elemINS_12basic_stringIcNS_11char_traitsIcEENS_9allocatorIcEEE5__repELi0ELb0EEC2B8ue170006ENS_18__default_init_tagE, symObjAddr: 0xAC5C, symBinAddr: 0x10000B4D8, symSize: 0x14 }
  - { offsetInCU: 0x27892, offset: 0x27892, size: 0x8, addend: 0x0, symName: __ZNSt3__122__compressed_pair_elemINS_9allocatorIcEELi1ELb1EEC2B8ue170006ENS_18__default_init_tagE, symObjAddr: 0xAC70, symBinAddr: 0x10000B4EC, symSize: 0x2C }
  - { offsetInCU: 0x278C7, offset: 0x278C7, size: 0x8, addend: 0x0, symName: __ZNSt3__19allocatorIcEC2B8ue170006Ev, symObjAddr: 0xAC9C, symBinAddr: 0x10000B518, symSize: 0x2C }
  - { offsetInCU: 0x278F1, offset: 0x278F1, size: 0x8, addend: 0x0, symName: __ZNSt3__116__non_trivial_ifILb1ENS_9allocatorIcEEEC2B8ue170006Ev, symObjAddr: 0xACC8, symBinAddr: 0x10000B544, symSize: 0x14 }
  - { offsetInCU: 0x27932, offset: 0x27932, size: 0x8, addend: 0x0, symName: __ZNSt3__16__treeINS_12__value_typeINS_12basic_stringIcNS_11char_traitsIcEENS_9allocatorIcEEEEhEENS_19__map_value_compareIS7_S8_NS_4lessIS7_EELb1EEENS5_IS8_EEE25__emplace_unique_key_argsIS7_JRKNS_21piecewise_construct_tENS_5tupleIJRKS7_EEENSJ_IJEEEEEENS_4pairINS_15__tree_iteratorIS8_PNS_11__tree_nodeIS8_PvEElEEbEERKT_DpOT0_, symObjAddr: 0xACDC, symBinAddr: 0x10000B558, symSize: 0x100 }
  - { offsetInCU: 0x27A08, offset: 0x27A08, size: 0x8, addend: 0x0, symName: __ZNKSt3__115__tree_iteratorINS_12__value_typeINS_12basic_stringIcNS_11char_traitsIcEENS_9allocatorIcEEEEhEEPNS_11__tree_nodeIS8_PvEElEptB8ue170006Ev, symObjAddr: 0xAE0C, symBinAddr: 0x10000B688, symSize: 0x2C }
  - { offsetInCU: 0x27A2E, offset: 0x27A2E, size: 0x8, addend: 0x0, symName: __ZNSt3__16__treeINS_12__value_typeINS_12basic_stringIcNS_11char_traitsIcEENS_9allocatorIcEEEEhEENS_19__map_value_compareIS7_S8_NS_4lessIS7_EELb1EEENS5_IS8_EEE16__construct_nodeIJRKNS_21piecewise_construct_tENS_5tupleIJRKS7_EEENSJ_IJEEEEEENS_10unique_ptrINS_11__tree_nodeIS8_PvEENS_22__tree_node_destructorINS5_ISR_EEEEEEDpOT_, symObjAddr: 0xAE38, symBinAddr: 0x10000B6B4, symSize: 0x120 }
  - { offsetInCU: 0x27AB7, offset: 0x27AB7, size: 0x8, addend: 0x0, symName: __ZNSt3__116allocator_traitsINS_9allocatorINS_11__tree_nodeINS_12__value_typeINS_12basic_stringIcNS_11char_traitsIcEENS1_IcEEEEhEEPvEEEEE9constructB8ue170006INS_4pairIKS8_hEEJRKNS_21piecewise_construct_tENS_5tupleIJRSG_EEENSL_IJEEEEvEEvRSC_PT_DpOT0_, symObjAddr: 0xAF58, symBinAddr: 0x10000B7D4, symSize: 0x44 }
  - { offsetInCU: 0x27B36, offset: 0x27B36, size: 0x8, addend: 0x0, symName: __ZNSt3__19allocatorINS_11__tree_nodeINS_12__value_typeINS_12basic_stringIcNS_11char_traitsIcEENS0_IcEEEEhEEPvEEE9constructB8ue170006INS_4pairIKS7_hEEJRKNS_21piecewise_construct_tENS_5tupleIJRSE_EEENSJ_IJEEEEEEvPT_DpOT0_, symObjAddr: 0xAF9C, symBinAddr: 0x10000B818, symSize: 0x44 }
  - { offsetInCU: 0x27BB2, offset: 0x27BB2, size: 0x8, addend: 0x0, symName: __ZNSt3__14pairIKNS_12basic_stringIcNS_11char_traitsIcEENS_9allocatorIcEEEEhEC1B8ue170006IJRS7_EJEEENS_21piecewise_construct_tENS_5tupleIJDpT_EEENSC_IJDpT0_EEE, symObjAddr: 0xAFE0, symBinAddr: 0x10000B85C, symSize: 0x3C }
  - { offsetInCU: 0x27C19, offset: 0x27C19, size: 0x8, addend: 0x0, symName: __ZNSt3__14pairIKNS_12basic_stringIcNS_11char_traitsIcEENS_9allocatorIcEEEEhEC1B8ue170006IJRS7_EJEJLm0EEJEEENS_21piecewise_construct_tERNS_5tupleIJDpT_EEERNSC_IJDpT0_EEENS_15__tuple_indicesIJXspT1_EEEENSL_IJXspT2_EEEE, symObjAddr: 0xB01C, symBinAddr: 0x10000B898, symSize: 0x3C }
  - { offsetInCU: 0x27CA6, offset: 0x27CA6, size: 0x8, addend: 0x0, symName: __ZNSt3__14pairIKNS_12basic_stringIcNS_11char_traitsIcEENS_9allocatorIcEEEEhEC2B8ue170006IJRS7_EJEJLm0EEJEEENS_21piecewise_construct_tERNS_5tupleIJDpT_EEERNSC_IJDpT0_EEENS_15__tuple_indicesIJXspT1_EEEENSL_IJXspT2_EEEE, symObjAddr: 0xB058, symBinAddr: 0x10000B8D4, symSize: 0x48 }
  - { offsetInCU: 0x27D33, offset: 0x27D33, size: 0x8, addend: 0x0, symName: __ZNSt3__112__tuple_leafILm0ERKNS_12basic_stringIcNS_11char_traitsIcEENS_9allocatorIcEEEELb0EE3getB8ue170006Ev, symObjAddr: 0xB0C4, symBinAddr: 0x10000B940, symSize: 0x18 }
  - { offsetInCU: 0x27D59, offset: 0x27D59, size: 0x8, addend: 0x0, symName: __ZNSt3__15tupleIJRKNS_12basic_stringIcNS_11char_traitsIcEENS_9allocatorIcEEEEEEC1B8ue170006INS_4_AndELi0EEES8_, symObjAddr: 0xB0DC, symBinAddr: 0x10000B958, symSize: 0x34 }
  - { offsetInCU: 0x27DA1, offset: 0x27DA1, size: 0x8, addend: 0x0, symName: __ZNSt3__15tupleIJRKNS_12basic_stringIcNS_11char_traitsIcEENS_9allocatorIcEEEEEEC2B8ue170006INS_4_AndELi0EEES8_, symObjAddr: 0xB110, symBinAddr: 0x10000B98C, symSize: 0x34 }
  - { offsetInCU: 0x27DE9, offset: 0x27DE9, size: 0x8, addend: 0x0, symName: __ZNSt3__112__tuple_implINS_15__tuple_indicesIJLm0EEEEJRKNS_12basic_stringIcNS_11char_traitsIcEENS_9allocatorIcEEEEEEC1B8ue170006IJLm0EEJSA_EJEJEJSA_EEENS1_IJXspT_EEEENS_13__tuple_typesIJDpT0_EEENS1_IJXspT1_EEEENSE_IJDpT2_EEEDpOT3_, symObjAddr: 0xB144, symBinAddr: 0x10000B9C0, symSize: 0x34 }
  - { offsetInCU: 0x27E7A, offset: 0x27E7A, size: 0x8, addend: 0x0, symName: __ZNSt3__112__tuple_implINS_15__tuple_indicesIJLm0EEEEJRKNS_12basic_stringIcNS_11char_traitsIcEENS_9allocatorIcEEEEEEC2B8ue170006IJLm0EEJSA_EJEJEJSA_EEENS1_IJXspT_EEEENS_13__tuple_typesIJDpT0_EEENS1_IJXspT1_EEEENSE_IJDpT2_EEEDpOT3_, symObjAddr: 0xB178, symBinAddr: 0x10000B9F4, symSize: 0x34 }
  - { offsetInCU: 0x27F0B, offset: 0x27F0B, size: 0x8, addend: 0x0, symName: __ZNSt3__112__tuple_leafILm0ERKNS_12basic_stringIcNS_11char_traitsIcEENS_9allocatorIcEEEELb0EEC2B8ue170006IS8_vEEOT_, symObjAddr: 0xB1AC, symBinAddr: 0x10000BA28, symSize: 0x20 }
  - { offsetInCU: 0x27F4E, offset: 0x27F4E, size: 0x8, addend: 0x0, symName: __ZNSt3__114pointer_traitsIPNS_12__value_typeINS_12basic_stringIcNS_11char_traitsIcEENS_9allocatorIcEEEEhEEE10pointer_toB8ue170006ERS8_, symObjAddr: 0xB1CC, symBinAddr: 0x10000BA48, symSize: 0x14 }
  - { offsetInCU: 0x27F71, offset: 0x27F71, size: 0x8, addend: 0x0, symName: __ZNKSt3__115__tree_iteratorINS_12__value_typeINS_12basic_stringIcNS_11char_traitsIcEENS_9allocatorIcEEEEhEEPNS_11__tree_nodeIS8_PvEElE8__get_npB8ue170006Ev, symObjAddr: 0xB1E0, symBinAddr: 0x10000BA5C, symSize: 0x18 }
  - { offsetInCU: 0x27F97, offset: 0x27F97, size: 0x8, addend: 0x0, symName: __ZNSt3__19basic_iosIcNS_11char_traitsIcEEE4fillB8ue170006Ec, symObjAddr: 0xB1F8, symBinAddr: 0x10000BA74, symSize: 0x74 }
  - { offsetInCU: 0x27FDD, offset: 0x27FDD, size: 0x8, addend: 0x0, symName: __ZNSt3__18__iom_t4IcEC1B8ue170006Ec, symObjAddr: 0xB26C, symBinAddr: 0x10000BAE8, symSize: 0x34 }
  - { offsetInCU: 0x28015, offset: 0x28015, size: 0x8, addend: 0x0, symName: __ZNSt3__18__iom_t4IcEC2B8ue170006Ec, symObjAddr: 0xB2A0, symBinAddr: 0x10000BB1C, symSize: 0x20 }
  - { offsetInCU: 0x2804D, offset: 0x2804D, size: 0x8, addend: 0x0, symName: __ZNSt3__18__iom_t6C1B8ue170006Ei, symObjAddr: 0xB2C0, symBinAddr: 0x10000BB3C, symSize: 0x34 }
  - { offsetInCU: 0x28085, offset: 0x28085, size: 0x8, addend: 0x0, symName: __ZNSt3__18__iom_t6C2B8ue170006Ei, symObjAddr: 0xB2F4, symBinAddr: 0x10000BB70, symSize: 0x20 }
  - { offsetInCU: 0x280BD, offset: 0x280BD, size: 0x8, addend: 0x0, symName: __ZNSt3__16vectorIP4NodeINS_12basic_stringIcNS_11char_traitsIcEENS_9allocatorIcEEEES7_ENS5_IS9_EEEC2ERKSB_, symObjAddr: 0xB314, symBinAddr: 0x10000BB90, symSize: 0x94 }
  - { offsetInCU: 0x280F8, offset: 0x280F8, size: 0x8, addend: 0x0, symName: __ZNSt3__116allocator_traitsINS_9allocatorIP4NodeINS_12basic_stringIcNS_11char_traitsIcEENS1_IcEEEES7_EEEE37select_on_container_copy_constructionB8ue170006ISA_vvEESA_RKSA_, symObjAddr: 0xB3A8, symBinAddr: 0x10000BC24, symSize: 0x10 }
  - { offsetInCU: 0x2812D, offset: 0x2812D, size: 0x8, addend: 0x0, symName: __ZNSt3__117__compressed_pairIPP4NodeINS_12basic_stringIcNS_11char_traitsIcEENS_9allocatorIcEEEES7_ENS5_IS9_EEEC1B8ue170006IDnSB_EEOT_OT0_, symObjAddr: 0xB3B8, symBinAddr: 0x10000BC34, symSize: 0x3C }
  - { offsetInCU: 0x28185, offset: 0x28185, size: 0x8, addend: 0x0, symName: __ZNSt3__16vectorIP4NodeINS_12basic_stringIcNS_11char_traitsIcEENS_9allocatorIcEEEES7_ENS5_IS9_EEE16__init_with_sizeB8ue170006IPS9_SD_EEvT_T0_m, symObjAddr: 0xB3F4, symBinAddr: 0x10000BC70, symSize: 0xB8 }
  - { offsetInCU: 0x281F9, offset: 0x281F9, size: 0x8, addend: 0x0, symName: __ZNSt3__117__compressed_pairIPP4NodeINS_12basic_stringIcNS_11char_traitsIcEENS_9allocatorIcEEEES7_ENS5_IS9_EEEC2B8ue170006IDnSB_EEOT_OT0_, symObjAddr: 0xB4AC, symBinAddr: 0x10000BD28, symSize: 0x44 }
  - { offsetInCU: 0x28251, offset: 0x28251, size: 0x8, addend: 0x0, symName: __ZNSt3__122__compressed_pair_elemINS_9allocatorIP4NodeINS_12basic_stringIcNS_11char_traitsIcEENS1_IcEEEES7_EEELi1ELb1EEC2B8ue170006ISA_vEEOT_, symObjAddr: 0xB4F0, symBinAddr: 0x10000BD6C, symSize: 0x18 }
  - { offsetInCU: 0x28293, offset: 0x28293, size: 0x8, addend: 0x0, symName: __ZNSt3__16vectorIP4NodeINS_12basic_stringIcNS_11char_traitsIcEENS_9allocatorIcEEEES7_ENS5_IS9_EEE16__destroy_vectorC1B8ue170006ERSB_, symObjAddr: 0xB548, symBinAddr: 0x10000BDC4, symSize: 0x34 }
  - { offsetInCU: 0x282CC, offset: 0x282CC, size: 0x8, addend: 0x0, symName: __ZNSt3__16vectorIP4NodeINS_12basic_stringIcNS_11char_traitsIcEENS_9allocatorIcEEEES7_ENS5_IS9_EEE11__vallocateB8ue170006Em, symObjAddr: 0xB57C, symBinAddr: 0x10000BDF8, symSize: 0xAC }
  - { offsetInCU: 0x28310, offset: 0x28310, size: 0x8, addend: 0x0, symName: __ZNSt3__16vectorIP4NodeINS_12basic_stringIcNS_11char_traitsIcEENS_9allocatorIcEEEES7_ENS5_IS9_EEE18__construct_at_endIPS9_SD_EEvT_T0_m, symObjAddr: 0xB628, symBinAddr: 0x10000BEA4, symSize: 0x8C }
  - { offsetInCU: 0x28386, offset: 0x28386, size: 0x8, addend: 0x0, symName: __ZNSt3__128__exception_guard_exceptionsINS_6vectorIP4NodeINS_12basic_stringIcNS_11char_traitsIcEENS_9allocatorIcEEEES8_ENS6_ISA_EEE16__destroy_vectorEE10__completeB8ue170006Ev, symObjAddr: 0xB6B4, symBinAddr: 0x10000BF30, symSize: 0x1C }
  - { offsetInCU: 0x283AC, offset: 0x283AC, size: 0x8, addend: 0x0, symName: __ZNSt3__128__exception_guard_exceptionsINS_6vectorIP4NodeINS_12basic_stringIcNS_11char_traitsIcEENS_9allocatorIcEEEES8_ENS6_ISA_EEE16__destroy_vectorEED1B8ue170006Ev, symObjAddr: 0xB6D0, symBinAddr: 0x10000BF4C, symSize: 0x2C }
  - { offsetInCU: 0x283D6, offset: 0x283D6, size: 0x8, addend: 0x0, symName: __ZNSt3__128__exception_guard_exceptionsINS_6vectorIP4NodeINS_12basic_stringIcNS_11char_traitsIcEENS_9allocatorIcEEEES8_ENS6_ISA_EEE16__destroy_vectorEEC1B8ue170006ESD_, symObjAddr: 0xB6FC, symBinAddr: 0x10000BF78, symSize: 0x34 }
  - { offsetInCU: 0x2840E, offset: 0x2840E, size: 0x8, addend: 0x0, symName: __ZNSt3__128__exception_guard_exceptionsINS_6vectorIP4NodeINS_12basic_stringIcNS_11char_traitsIcEENS_9allocatorIcEEEES8_ENS6_ISA_EEE16__destroy_vectorEEC2B8ue170006ESD_, symObjAddr: 0xB730, symBinAddr: 0x10000BFAC, symSize: 0x24 }
  - { offsetInCU: 0x28446, offset: 0x28446, size: 0x8, addend: 0x0, symName: __ZNSt3__16vectorIP4NodeINS_12basic_stringIcNS_11char_traitsIcEENS_9allocatorIcEEEES7_ENS5_IS9_EEE16__destroy_vectorC2B8ue170006ERSB_, symObjAddr: 0xB754, symBinAddr: 0x10000BFD0, symSize: 0x20 }
  - { offsetInCU: 0x284A1, offset: 0x284A1, size: 0x8, addend: 0x0, symName: __ZNSt3__14pairIPP4NodeINS_12basic_stringIcNS_11char_traitsIcEENS_9allocatorIcEEEES7_ESA_EC1B8ue170006ISA_SA_LPv0EEEOT_OT0_, symObjAddr: 0xB924, symBinAddr: 0x10000C1A0, symSize: 0x3C }
  - { offsetInCU: 0x284FF, offset: 0x284FF, size: 0x8, addend: 0x0, symName: __ZNSt3__14pairIPP4NodeINS_12basic_stringIcNS_11char_traitsIcEENS_9allocatorIcEEEES7_ESA_EC2B8ue170006ISA_SA_LPv0EEEOT_OT0_, symObjAddr: 0xB960, symBinAddr: 0x10000C1DC, symSize: 0x34 }
  - { offsetInCU: 0x28567, offset: 0x28567, size: 0x8, addend: 0x0, symName: __ZNKSt3__114__copy_trivialclB8ue170006IP4NodeINS_12basic_stringIcNS_11char_traitsIcEENS_9allocatorIcEEEES8_ESA_Li0EEENS_4pairIPT_PT0_EESD_SD_SF_, symObjAddr: 0xBB10, symBinAddr: 0x10000C38C, symSize: 0x48 }
  - { offsetInCU: 0x285CF, offset: 0x285CF, size: 0x8, addend: 0x0, symName: __ZNSt3__14pairIPP4NodeINS_12basic_stringIcNS_11char_traitsIcEENS_9allocatorIcEEEES7_ESA_EC1B8ue170006IRSA_SA_LPv0EEEOT_OT0_, symObjAddr: 0xBCA0, symBinAddr: 0x10000C51C, symSize: 0x3C }
  - { offsetInCU: 0x2862D, offset: 0x2862D, size: 0x8, addend: 0x0, symName: __ZNSt3__14pairIPP4NodeINS_12basic_stringIcNS_11char_traitsIcEENS_9allocatorIcEEEES7_ESA_EC2B8ue170006IRSA_SA_LPv0EEEOT_OT0_, symObjAddr: 0xBCDC, symBinAddr: 0x10000C558, symSize: 0x34 }
  - { offsetInCU: 0x2868B, offset: 0x2868B, size: 0x8, addend: 0x0, symName: __ZNSt3__118__unwrap_iter_implIPP4NodeINS_12basic_stringIcNS_11char_traitsIcEENS_9allocatorIcEEEES7_ELb1EE8__unwrapB8ue170006ESA_, symObjAddr: 0xBD10, symBinAddr: 0x10000C58C, symSize: 0x24 }
  - { offsetInCU: 0x286AE, offset: 0x286AE, size: 0x8, addend: 0x0, symName: __ZNSt3__118__unwrap_iter_implIPP4NodeINS_12basic_stringIcNS_11char_traitsIcEENS_9allocatorIcEEEES7_ELb1EE8__rewrapB8ue170006ESA_SA_, symObjAddr: 0xBD34, symBinAddr: 0x10000C5B0, symSize: 0x50 }
  - { offsetInCU: 0x286DF, offset: 0x286DF, size: 0x8, addend: 0x0, symName: __ZNSt3__128__exception_guard_exceptionsINS_6vectorIP4NodeINS_12basic_stringIcNS_11char_traitsIcEENS_9allocatorIcEEEES8_ENS6_ISA_EEE16__destroy_vectorEED2B8ue170006Ev, symObjAddr: 0xBD84, symBinAddr: 0x10000C600, symSize: 0x50 }
  - { offsetInCU: 0x28709, offset: 0x28709, size: 0x8, addend: 0x0, symName: __ZNSt3__16vectorIP4NodeINS_12basic_stringIcNS_11char_traitsIcEENS_9allocatorIcEEEES7_ENS5_IS9_EEE16__destroy_vectorclB8ue170006Ev, symObjAddr: 0xBDD4, symBinAddr: 0x10000C650, symSize: 0x90 }
  - { offsetInCU: 0x2872F, offset: 0x2872F, size: 0x8, addend: 0x0, symName: __ZNSt3__16vectorIP4NodeINS_12basic_stringIcNS_11char_traitsIcEENS_9allocatorIcEEEES7_ENS5_IS9_EEE7__clearB8ue170006Ev, symObjAddr: 0xBE64, symBinAddr: 0x10000C6E0, symSize: 0x28 }
  - { offsetInCU: 0x28755, offset: 0x28755, size: 0x8, addend: 0x0, symName: __ZNSt3__16vectorIP4NodeINS_12basic_stringIcNS_11char_traitsIcEENS_9allocatorIcEEEES7_ENS5_IS9_EEE22__base_destruct_at_endB8ue170006EPS9_, symObjAddr: 0xBE8C, symBinAddr: 0x10000C708, symSize: 0x8C }
  - { offsetInCU: 0x28799, offset: 0x28799, size: 0x8, addend: 0x0, symName: __ZNKSt3__16vectorIP4NodeINS_12basic_stringIcNS_11char_traitsIcEENS_9allocatorIcEEEES7_ENS5_IS9_EEE17__annotate_shrinkB8ue170006Em, symObjAddr: 0xBF18, symBinAddr: 0x10000C794, symSize: 0xB4 }
  - { offsetInCU: 0x287CE, offset: 0x287CE, size: 0x8, addend: 0x0, symName: __ZNSt3__16vectorIP4NodeINS_12basic_stringIcNS_11char_traitsIcEENS_9allocatorIcEEEES7_ENS5_IS9_EEE11__make_iterB8ue170006EPS9_, symObjAddr: 0xBFCC, symBinAddr: 0x10000C848, symSize: 0x30 }
  - { offsetInCU: 0x28803, offset: 0x28803, size: 0x8, addend: 0x0, symName: __ZNSt3__111__wrap_iterIPP4NodeINS_12basic_stringIcNS_11char_traitsIcEENS_9allocatorIcEEEES7_EEC1B8ue170006ESA_, symObjAddr: 0xBFFC, symBinAddr: 0x10000C878, symSize: 0x34 }
  - { offsetInCU: 0x2883B, offset: 0x2883B, size: 0x8, addend: 0x0, symName: __ZNSt3__111__wrap_iterIPP4NodeINS_12basic_stringIcNS_11char_traitsIcEENS_9allocatorIcEEEES7_EEC2B8ue170006ESA_, symObjAddr: 0xC030, symBinAddr: 0x10000C8AC, symSize: 0x20 }
  - { offsetInCU: 0x28873, offset: 0x28873, size: 0x8, addend: 0x0, symName: __ZNKSt3__111__wrap_iterIPP4NodeINS_12basic_stringIcNS_11char_traitsIcEENS_9allocatorIcEEEES7_EE4baseB8ue170006Ev, symObjAddr: 0xC098, symBinAddr: 0x10000C914, symSize: 0x18 }
  - { offsetInCU: 0x28899, offset: 0x28899, size: 0x8, addend: 0x0, symName: __ZNSt3__16vectorIP4NodeINS_12basic_stringIcNS_11char_traitsIcEENS_9allocatorIcEEEES7_ENS5_IS9_EEE22__construct_one_at_endB8ue170006IJS9_EEEvDpOT_, symObjAddr: 0xC0B0, symBinAddr: 0x10000C92C, symSize: 0x90 }
  - { offsetInCU: 0x288E8, offset: 0x288E8, size: 0x8, addend: 0x0, symName: __ZNSt3__16vectorIP4NodeINS_12basic_stringIcNS_11char_traitsIcEENS_9allocatorIcEEEES7_ENS5_IS9_EEE21__push_back_slow_pathIS9_EEvOT_, symObjAddr: 0xC140, symBinAddr: 0x10000C9BC, symSize: 0xD8 }
  - { offsetInCU: 0x28946, offset: 0x28946, size: 0x8, addend: 0x0, symName: __ZNSt3__116allocator_traitsINS_9allocatorIP4NodeINS_12basic_stringIcNS_11char_traitsIcEENS1_IcEEEES7_EEEE9constructB8ue170006IS9_JS9_EvEEvRSA_PT_DpOT0_, symObjAddr: 0xC218, symBinAddr: 0x10000CA94, symSize: 0x34 }
  - { offsetInCU: 0x2899D, offset: 0x2899D, size: 0x8, addend: 0x0, symName: __ZNSt3__19allocatorIP4NodeINS_12basic_stringIcNS_11char_traitsIcEENS0_IcEEEES6_EE9constructB8ue170006IS8_JS8_EEEvPT_DpOT0_, symObjAddr: 0xC24C, symBinAddr: 0x10000CAC8, symSize: 0x28 }
  - { offsetInCU: 0x289F3, offset: 0x289F3, size: 0x8, addend: 0x0, symName: __ZNSt3__16vectorIP4NodeINS_12basic_stringIcNS_11char_traitsIcEENS_9allocatorIcEEEES7_ENS5_IS9_EEED2B8ue170006Ev, symObjAddr: 0xC274, symBinAddr: 0x10000CAF0, symSize: 0x40 }
  - { offsetInCU: 0x28A1D, offset: 0x28A1D, size: 0x8, addend: 0x0, symName: __ZNSt3__16__treeINS_12__value_typeINS_12basic_stringIcNS_11char_traitsIcEENS_9allocatorIcEEEEhEENS_19__map_value_compareIS7_S8_NS_4lessIS7_EELb1EEENS5_IS8_EEE5beginB8ue170006Ev, symObjAddr: 0xC2B4, symBinAddr: 0x10000CB30, symSize: 0x34 }
  - { offsetInCU: 0x28A43, offset: 0x28A43, size: 0x8, addend: 0x0, symName: __ZNSt3__115__tree_iteratorINS_12__value_typeINS_12basic_stringIcNS_11char_traitsIcEENS_9allocatorIcEEEEhEEPNS_11__tree_nodeIS8_PvEElEC1B8ue170006EPNS_15__tree_end_nodeIPNS_16__tree_node_baseISA_EEEE, symObjAddr: 0xC2E8, symBinAddr: 0x10000CB64, symSize: 0x34 }
  - { offsetInCU: 0x28A7C, offset: 0x28A7C, size: 0x8, addend: 0x0, symName: __ZNSt3__115__tree_iteratorINS_12__value_typeINS_12basic_stringIcNS_11char_traitsIcEENS_9allocatorIcEEEEhEEPNS_11__tree_nodeIS8_PvEElEC2B8ue170006EPNS_15__tree_end_nodeIPNS_16__tree_node_baseISA_EEEE, symObjAddr: 0xC31C, symBinAddr: 0x10000CB98, symSize: 0x20 }
  - { offsetInCU: 0x28AB5, offset: 0x28AB5, size: 0x8, addend: 0x0, symName: __ZNSt3__16__treeINS_12__value_typeINS_12basic_stringIcNS_11char_traitsIcEENS_9allocatorIcEEEEhEENS_19__map_value_compareIS7_S8_NS_4lessIS7_EELb1EEENS5_IS8_EEE3endB8ue170006Ev, symObjAddr: 0xC3A0, symBinAddr: 0x10000CC1C, symSize: 0x34 }
  - { offsetInCU: 0x28ADB, offset: 0x28ADB, size: 0x8, addend: 0x0, symName: __ZNSt3__114pointer_traitsIPNS_4pairIKNS_12basic_stringIcNS_11char_traitsIcEENS_9allocatorIcEEEEhEEE10pointer_toB8ue170006ERS9_, symObjAddr: 0xC3D4, symBinAddr: 0x10000CC50, symSize: 0x14 }
  - { offsetInCU: 0x28AFE, offset: 0x28AFE, size: 0x8, addend: 0x0, symName: __ZNSt3__115__tree_iteratorINS_12__value_typeINS_12basic_stringIcNS_11char_traitsIcEENS_9allocatorIcEEEEhEEPNS_11__tree_nodeIS8_PvEElEppB8ue170006Ev, symObjAddr: 0xC3E8, symBinAddr: 0x10000CC64, symSize: 0x38 }
  - { offsetInCU: 0x28B24, offset: 0x28B24, size: 0x8, addend: 0x0, symName: __ZNSt3__13mapINS_12basic_stringIcNS_11char_traitsIcEENS_9allocatorIcEEEEhNS_4lessIS6_EENS4_INS_4pairIKS6_hEEEEED2B8ue170006Ev, symObjAddr: 0xC4E0, symBinAddr: 0x10000CD5C, symSize: 0x2C }
  - { offsetInCU: 0x28B4E, offset: 0x28B4E, size: 0x8, addend: 0x0, symName: __ZNSt3__16__treeINS_12__value_typeINS_12basic_stringIcNS_11char_traitsIcEENS_9allocatorIcEEEEhEENS_19__map_value_compareIS7_S8_NS_4lessIS7_EELb1EEENS5_IS8_EEED1Ev, symObjAddr: 0xC50C, symBinAddr: 0x10000CD88, symSize: 0x2C }
  - { offsetInCU: 0x28B7A, offset: 0x28B7A, size: 0x8, addend: 0x0, symName: __ZNSt3__16__treeINS_12__value_typeINS_12basic_stringIcNS_11char_traitsIcEENS_9allocatorIcEEEEhEENS_19__map_value_compareIS7_S8_NS_4lessIS7_EELb1EEENS5_IS8_EEED2Ev, symObjAddr: 0xC538, symBinAddr: 0x10000CDB4, symSize: 0x38 }
  - { offsetInCU: 0x28BA6, offset: 0x28BA6, size: 0x8, addend: 0x0, symName: __ZNSt3__16__treeINS_12__value_typeINS_12basic_stringIcNS_11char_traitsIcEENS_9allocatorIcEEEEhEENS_19__map_value_compareIS7_S8_NS_4lessIS7_EELb1EEENS5_IS8_EEE7destroyEPNS_11__tree_nodeIS8_PvEE, symObjAddr: 0xC570, symBinAddr: 0x10000CDEC, symSize: 0xA8 }
  - { offsetInCU: 0x28BFD, offset: 0x28BFD, size: 0x8, addend: 0x0, symName: __ZNSt3__14pairIPKcS2_EC1B8ue170006ILb1ELPv0EEERKS2_S7_, symObjAddr: 0xC618, symBinAddr: 0x10000CE94, symSize: 0x3C }
  - { offsetInCU: 0x28C53, offset: 0x28C53, size: 0x8, addend: 0x0, symName: __ZNSt3__14pairIPKcS2_EC2B8ue170006ILb1ELPv0EEERKS2_S7_, symObjAddr: 0xC654, symBinAddr: 0x10000CED0, symSize: 0x34 }
  - { offsetInCU: 0x28CA9, offset: 0x28CA9, size: 0x8, addend: 0x0, symName: __ZNSt3__14pairIKNS_12basic_stringIcNS_11char_traitsIcEENS_9allocatorIcEEEES6_EC2B8ue170006IPKcSB_LPv0EEEONS0_IT_T0_EE, symObjAddr: 0xC688, symBinAddr: 0x10000CF04, symSize: 0x74 }
  - { offsetInCU: 0x28CFA, offset: 0x28CFA, size: 0x8, addend: 0x0, symName: __ZNSt3__14pairIKNS_12basic_stringIcNS_11char_traitsIcEENS_9allocatorIcEEEES6_ED2Ev, symObjAddr: 0xC6FC, symBinAddr: 0x10000CF78, symSize: 0x38 }
  - { offsetInCU: 0x28D26, offset: 0x28D26, size: 0x8, addend: 0x0, symName: __ZN7testing7MessageD2Ev, symObjAddr: 0xC734, symBinAddr: 0x10000CFB0, symSize: 0x2C }
  - { offsetInCU: 0x28D52, offset: 0x28D52, size: 0x8, addend: 0x0, symName: __ZNSt3__110unique_ptrINS_18basic_stringstreamIcNS_11char_traitsIcEENS_9allocatorIcEEEENS_14default_deleteIS6_EEED1B8ue170006Ev, symObjAddr: 0xC760, symBinAddr: 0x10000CFDC, symSize: 0x2C }
  - { offsetInCU: 0x28D7C, offset: 0x28D7C, size: 0x8, addend: 0x0, symName: __ZNSt3__110unique_ptrINS_18basic_stringstreamIcNS_11char_traitsIcEENS_9allocatorIcEEEENS_14default_deleteIS6_EEED2B8ue170006Ev, symObjAddr: 0xC78C, symBinAddr: 0x10000D008, symSize: 0x30 }
  - { offsetInCU: 0x28DA6, offset: 0x28DA6, size: 0x8, addend: 0x0, symName: __ZNSt3__110unique_ptrINS_18basic_stringstreamIcNS_11char_traitsIcEENS_9allocatorIcEEEENS_14default_deleteIS6_EEE5resetB8ue170006EPS6_, symObjAddr: 0xC7BC, symBinAddr: 0x10000D038, symSize: 0x78 }
  - { offsetInCU: 0x28DEA, offset: 0x28DEA, size: 0x8, addend: 0x0, symName: __ZNSt3__117__compressed_pairIPNS_18basic_stringstreamIcNS_11char_traitsIcEENS_9allocatorIcEEEENS_14default_deleteIS6_EEE5firstB8ue170006Ev, symObjAddr: 0xC834, symBinAddr: 0x10000D0B0, symSize: 0x24 }
  - { offsetInCU: 0x28E10, offset: 0x28E10, size: 0x8, addend: 0x0, symName: __ZNSt3__117__compressed_pairIPNS_18basic_stringstreamIcNS_11char_traitsIcEENS_9allocatorIcEEEENS_14default_deleteIS6_EEE6secondB8ue170006Ev, symObjAddr: 0xC858, symBinAddr: 0x10000D0D4, symSize: 0x24 }
  - { offsetInCU: 0x28E36, offset: 0x28E36, size: 0x8, addend: 0x0, symName: __ZNKSt3__114default_deleteINS_18basic_stringstreamIcNS_11char_traitsIcEENS_9allocatorIcEEEEEclB8ue170006EPS6_, symObjAddr: 0xC87C, symBinAddr: 0x10000D0F8, symSize: 0x4C }
  - { offsetInCU: 0x28E6A, offset: 0x28E6A, size: 0x8, addend: 0x0, symName: __ZNSt3__122__compressed_pair_elemIPNS_18basic_stringstreamIcNS_11char_traitsIcEENS_9allocatorIcEEEELi0ELb0EE5__getB8ue170006Ev, symObjAddr: 0xC8C8, symBinAddr: 0x10000D144, symSize: 0x14 }
  - { offsetInCU: 0x28E90, offset: 0x28E90, size: 0x8, addend: 0x0, symName: __ZNSt3__122__compressed_pair_elemINS_14default_deleteINS_18basic_stringstreamIcNS_11char_traitsIcEENS_9allocatorIcEEEEEELi1ELb1EE5__getB8ue170006Ev, symObjAddr: 0xC8DC, symBinAddr: 0x10000D158, symSize: 0x14 }
  - { offsetInCU: 0x28EB6, offset: 0x28EB6, size: 0x8, addend: 0x0, symName: __ZN7testing15AssertionResultD2Ev, symObjAddr: 0xC8F0, symBinAddr: 0x10000D16C, symSize: 0x30 }
  - { offsetInCU: 0x28EE2, offset: 0x28EE2, size: 0x8, addend: 0x0, symName: __ZNSt3__110unique_ptrINS_12basic_stringIcNS_11char_traitsIcEENS_9allocatorIcEEEENS_14default_deleteIS6_EEED1B8ue170006Ev, symObjAddr: 0xC920, symBinAddr: 0x10000D19C, symSize: 0x2C }
  - { offsetInCU: 0x28F0C, offset: 0x28F0C, size: 0x8, addend: 0x0, symName: __ZNSt3__110unique_ptrINS_12basic_stringIcNS_11char_traitsIcEENS_9allocatorIcEEEENS_14default_deleteIS6_EEED2B8ue170006Ev, symObjAddr: 0xC94C, symBinAddr: 0x10000D1C8, symSize: 0x30 }
  - { offsetInCU: 0x28F36, offset: 0x28F36, size: 0x8, addend: 0x0, symName: __ZNSt3__110unique_ptrINS_12basic_stringIcNS_11char_traitsIcEENS_9allocatorIcEEEENS_14default_deleteIS6_EEE5resetB8ue170006EPS6_, symObjAddr: 0xC97C, symBinAddr: 0x10000D1F8, symSize: 0x78 }
  - { offsetInCU: 0x28F7A, offset: 0x28F7A, size: 0x8, addend: 0x0, symName: __ZNSt3__117__compressed_pairIPNS_12basic_stringIcNS_11char_traitsIcEENS_9allocatorIcEEEENS_14default_deleteIS6_EEE5firstB8ue170006Ev, symObjAddr: 0xC9F4, symBinAddr: 0x10000D270, symSize: 0x24 }
  - { offsetInCU: 0x28FA0, offset: 0x28FA0, size: 0x8, addend: 0x0, symName: __ZNSt3__117__compressed_pairIPNS_12basic_stringIcNS_11char_traitsIcEENS_9allocatorIcEEEENS_14default_deleteIS6_EEE6secondB8ue170006Ev, symObjAddr: 0xCA18, symBinAddr: 0x10000D294, symSize: 0x24 }
  - { offsetInCU: 0x28FC6, offset: 0x28FC6, size: 0x8, addend: 0x0, symName: __ZNKSt3__114default_deleteINS_12basic_stringIcNS_11char_traitsIcEENS_9allocatorIcEEEEEclB8ue170006EPS6_, symObjAddr: 0xCA3C, symBinAddr: 0x10000D2B8, symSize: 0x4C }
  - { offsetInCU: 0x28FFA, offset: 0x28FFA, size: 0x8, addend: 0x0, symName: __ZNSt3__122__compressed_pair_elemIPNS_12basic_stringIcNS_11char_traitsIcEENS_9allocatorIcEEEELi0ELb0EE5__getB8ue170006Ev, symObjAddr: 0xCA88, symBinAddr: 0x10000D304, symSize: 0x14 }
  - { offsetInCU: 0x29020, offset: 0x29020, size: 0x8, addend: 0x0, symName: __ZNSt3__122__compressed_pair_elemINS_14default_deleteINS_12basic_stringIcNS_11char_traitsIcEENS_9allocatorIcEEEEEELi1ELb1EE5__getB8ue170006Ev, symObjAddr: 0xCA9C, symBinAddr: 0x10000D318, symSize: 0x14 }
  - { offsetInCU: 0x29046, offset: 0x29046, size: 0x8, addend: 0x0, symName: __ZNK7testing15AssertionResult7messageEv, symObjAddr: 0xCAB0, symBinAddr: 0x10000D32C, symSize: 0x64 }
  - { offsetInCU: 0x2906C, offset: 0x2906C, size: 0x8, addend: 0x0, symName: __ZNKSt3__110unique_ptrINS_12basic_stringIcNS_11char_traitsIcEENS_9allocatorIcEEEENS_14default_deleteIS6_EEEptB8ue170006Ev, symObjAddr: 0xCB40, symBinAddr: 0x10000D3BC, symSize: 0x28 }
  - { offsetInCU: 0x29092, offset: 0x29092, size: 0x8, addend: 0x0, symName: __ZNKSt3__110unique_ptrINS_12basic_stringIcNS_11char_traitsIcEENS_9allocatorIcEEEENS_14default_deleteIS6_EEEcvbB8ue170006Ev, symObjAddr: 0xCB68, symBinAddr: 0x10000D3E4, symSize: 0x34 }
  - { offsetInCU: 0x290B8, offset: 0x290B8, size: 0x8, addend: 0x0, symName: __ZNKSt3__117__compressed_pairIPNS_12basic_stringIcNS_11char_traitsIcEENS_9allocatorIcEEEENS_14default_deleteIS6_EEE5firstB8ue170006Ev, symObjAddr: 0xCB9C, symBinAddr: 0x10000D418, symSize: 0x24 }
  - { offsetInCU: 0x290DE, offset: 0x290DE, size: 0x8, addend: 0x0, symName: __ZNKSt3__122__compressed_pair_elemIPNS_12basic_stringIcNS_11char_traitsIcEENS_9allocatorIcEEEELi0ELb0EE5__getB8ue170006Ev, symObjAddr: 0xCBC0, symBinAddr: 0x10000D43C, symSize: 0x14 }
  - { offsetInCU: 0x29104, offset: 0x29104, size: 0x8, addend: 0x0, symName: __ZN7AVLTreeINSt3__112basic_stringIcNS0_11char_traitsIcEENS0_9allocatorIcEEEES6_ED2Ev, symObjAddr: 0xCBD4, symBinAddr: 0x10000D450, symSize: 0x2C }
  - { offsetInCU: 0x29130, offset: 0x29130, size: 0x8, addend: 0x0, symName: __ZN7testing8internal15TestFactoryImplI29AVL_Random50InsertRemove_TestEC2Ev, symObjAddr: 0xCC00, symBinAddr: 0x10000D47C, symSize: 0x44 }
  - { offsetInCU: 0x2915D, offset: 0x2915D, size: 0x8, addend: 0x0, symName: __ZN7testing8internal15TestFactoryImplI29AVL_Random50InsertRemove_TestED1Ev, symObjAddr: 0xCC44, symBinAddr: 0x10000D4C0, symSize: 0x2C }
  - { offsetInCU: 0x2918A, offset: 0x2918A, size: 0x8, addend: 0x0, symName: __ZN7testing8internal15TestFactoryImplI29AVL_Random50InsertRemove_TestED0Ev, symObjAddr: 0xCC70, symBinAddr: 0x10000D4EC, symSize: 0x30 }
  - { offsetInCU: 0x291B7, offset: 0x291B7, size: 0x8, addend: 0x0, symName: __ZN7testing8internal15TestFactoryImplI29AVL_Random50InsertRemove_TestE10CreateTestEv, symObjAddr: 0xCCA0, symBinAddr: 0x10000D51C, symSize: 0x58 }
  - { offsetInCU: 0x291DD, offset: 0x291DD, size: 0x8, addend: 0x0, symName: __ZN7testing8internal15TestFactoryImplI29AVL_Random50InsertRemove_TestED2Ev, symObjAddr: 0xCCF8, symBinAddr: 0x10000D574, symSize: 0x2C }
  - { offsetInCU: 0x2920A, offset: 0x2920A, size: 0x8, addend: 0x0, symName: __ZN29AVL_Random50InsertRemove_TestC1Ev, symObjAddr: 0xCD24, symBinAddr: 0x10000D5A0, symSize: 0x2C }
  - { offsetInCU: 0x29234, offset: 0x29234, size: 0x8, addend: 0x0, symName: __ZN29AVL_Random50InsertRemove_TestC2Ev, symObjAddr: 0xCD50, symBinAddr: 0x10000D5CC, symSize: 0x44 }
  - { offsetInCU: 0x2925E, offset: 0x2925E, size: 0x8, addend: 0x0, symName: __ZN7AVLTreeIiiEC2Ev, symObjAddr: 0xCD94, symBinAddr: 0x10000D610, symSize: 0x44 }
  - { offsetInCU: 0x2928A, offset: 0x2928A, size: 0x8, addend: 0x0, symName: __ZN16BinarySearchTreeIiiEC2Ev, symObjAddr: 0xCDD8, symBinAddr: 0x10000D654, symSize: 0x28 }
  - { offsetInCU: 0x292B6, offset: 0x292B6, size: 0x8, addend: 0x0, symName: __ZN7AVLTreeIiiED0Ev, symObjAddr: 0xCE00, symBinAddr: 0x10000D67C, symSize: 0x30 }
  - { offsetInCU: 0x292E2, offset: 0x292E2, size: 0x8, addend: 0x0, symName: __ZNK16BinarySearchTreeIiiE9printRootEP4NodeIiiE, symObjAddr: 0xCE30, symBinAddr: 0x10000D6AC, symSize: 0xC5C }
  - { offsetInCU: 0x2950A, offset: 0x2950A, size: 0x8, addend: 0x0, symName: __ZN16BinarySearchTreeIiiE8nodeSwapEP4NodeIiiES3_, symObjAddr: 0xDA8C, symBinAddr: 0x10000E308, symSize: 0x584 }
  - { offsetInCU: 0x295D7, offset: 0x295D7, size: 0x8, addend: 0x0, symName: __ZN7AVLTreeIiiE8nodeSwapEP7AVLNodeIiiES3_, symObjAddr: 0xE010, symBinAddr: 0x10000E88C, symSize: 0x68 }
  - { offsetInCU: 0x2962A, offset: 0x2962A, size: 0x8, addend: 0x0, symName: __ZN16BinarySearchTreeIiiED1Ev, symObjAddr: 0xE078, symBinAddr: 0x10000E8F4, symSize: 0x2C }
  - { offsetInCU: 0x29656, offset: 0x29656, size: 0x8, addend: 0x0, symName: __ZN16BinarySearchTreeIiiED0Ev, symObjAddr: 0xE0A4, symBinAddr: 0x10000E920, symSize: 0x30 }
  - { offsetInCU: 0x29682, offset: 0x29682, size: 0x8, addend: 0x0, symName: __ZN16BinarySearchTreeIiiE6insertERKNSt3__14pairIKiiEE, symObjAddr: 0xE0D4, symBinAddr: 0x10000E950, symSize: 0x2FC }
  - { offsetInCU: 0x296FA, offset: 0x296FA, size: 0x8, addend: 0x0, symName: __ZN16BinarySearchTreeIiiE6removeERKi, symObjAddr: 0xE3D0, symBinAddr: 0x10000EC4C, symSize: 0x2D8 }
  - { offsetInCU: 0x2974E, offset: 0x2974E, size: 0x8, addend: 0x0, symName: __ZN16BinarySearchTreeIiiED2Ev, symObjAddr: 0xE6A8, symBinAddr: 0x10000EF24, symSize: 0x44 }
  - { offsetInCU: 0x2977A, offset: 0x2977A, size: 0x8, addend: 0x0, symName: __ZN16BinarySearchTreeIiiE5clearEv, symObjAddr: 0xE6EC, symBinAddr: 0x10000EF68, symSize: 0x3C }
  - { offsetInCU: 0x297B1, offset: 0x297B1, size: 0x8, addend: 0x0, symName: __ZN16BinarySearchTreeIiiE9clearTreeEP4NodeIiiE, symObjAddr: 0xE728, symBinAddr: 0x10000EFA4, symSize: 0xA4 }
  - { offsetInCU: 0x297E7, offset: 0x297E7, size: 0x8, addend: 0x0, symName: __ZN4NodeIiiEC1ERKiS2_PS0_, symObjAddr: 0xE7CC, symBinAddr: 0x10000F048, symSize: 0x44 }
  - { offsetInCU: 0x2983C, offset: 0x2983C, size: 0x8, addend: 0x0, symName: __ZNK4NodeIiiE6getKeyEv, symObjAddr: 0xE810, symBinAddr: 0x10000F08C, symSize: 0x18 }
  - { offsetInCU: 0x29863, offset: 0x29863, size: 0x8, addend: 0x0, symName: __ZN4NodeIiiE8setValueERKi, symObjAddr: 0xE828, symBinAddr: 0x10000F0A4, symSize: 0x24 }
  - { offsetInCU: 0x29898, offset: 0x29898, size: 0x8, addend: 0x0, symName: __ZN4NodeIiiE8setRightEPS0_, symObjAddr: 0xE84C, symBinAddr: 0x10000F0C8, symSize: 0x20 }
  - { offsetInCU: 0x298CD, offset: 0x298CD, size: 0x8, addend: 0x0, symName: __ZN4NodeIiiE7setLeftEPS0_, symObjAddr: 0xE86C, symBinAddr: 0x10000F0E8, symSize: 0x20 }
  - { offsetInCU: 0x29902, offset: 0x29902, size: 0x8, addend: 0x0, symName: __ZN4NodeIiiEC2ERKiS2_PS0_, symObjAddr: 0xE88C, symBinAddr: 0x10000F108, symSize: 0x64 }
  - { offsetInCU: 0x29957, offset: 0x29957, size: 0x8, addend: 0x0, symName: __ZNSt3__14pairIKiiEC1B8ue170006ILb1ELPv0EEERS1_S5_, symObjAddr: 0xE8F0, symBinAddr: 0x10000F16C, symSize: 0x3C }
  - { offsetInCU: 0x299AD, offset: 0x299AD, size: 0x8, addend: 0x0, symName: __ZN4NodeIiiED1Ev, symObjAddr: 0xE92C, symBinAddr: 0x10000F1A8, symSize: 0x2C }
  - { offsetInCU: 0x299D8, offset: 0x299D8, size: 0x8, addend: 0x0, symName: __ZN4NodeIiiED0Ev, symObjAddr: 0xE958, symBinAddr: 0x10000F1D4, symSize: 0x30 }
  - { offsetInCU: 0x29A03, offset: 0x29A03, size: 0x8, addend: 0x0, symName: __ZNK4NodeIiiE9getParentEv, symObjAddr: 0xE988, symBinAddr: 0x10000F204, symSize: 0x18 }
  - { offsetInCU: 0x29A2A, offset: 0x29A2A, size: 0x8, addend: 0x0, symName: __ZNK4NodeIiiE7getLeftEv, symObjAddr: 0xE9A0, symBinAddr: 0x10000F21C, symSize: 0x18 }
  - { offsetInCU: 0x29A51, offset: 0x29A51, size: 0x8, addend: 0x0, symName: __ZNK4NodeIiiE8getRightEv, symObjAddr: 0xE9B8, symBinAddr: 0x10000F234, symSize: 0x18 }
  - { offsetInCU: 0x29A78, offset: 0x29A78, size: 0x8, addend: 0x0, symName: __ZNSt3__14pairIKiiEC2B8ue170006ILb1ELPv0EEERS1_S5_, symObjAddr: 0xE9D0, symBinAddr: 0x10000F24C, symSize: 0x34 }
  - { offsetInCU: 0x29ACE, offset: 0x29ACE, size: 0x8, addend: 0x0, symName: __ZN4NodeIiiED2Ev, symObjAddr: 0xEA04, symBinAddr: 0x10000F280, symSize: 0x14 }
  - { offsetInCU: 0x29AF9, offset: 0x29AF9, size: 0x8, addend: 0x0, symName: __ZNK16BinarySearchTreeIiiE12internalFindERKi, symObjAddr: 0xEA18, symBinAddr: 0x10000F294, symSize: 0x180 }
  - { offsetInCU: 0x29B3E, offset: 0x29B3E, size: 0x8, addend: 0x0, symName: __ZN16BinarySearchTreeIiiE9successorEP4NodeIiiE, symObjAddr: 0xEB98, symBinAddr: 0x10000F414, symSize: 0x158 }
  - { offsetInCU: 0x29B72, offset: 0x29B72, size: 0x8, addend: 0x0, symName: __ZN4NodeIiiE9setParentEPS0_, symObjAddr: 0xECF0, symBinAddr: 0x10000F56C, symSize: 0x20 }
  - { offsetInCU: 0x29BA7, offset: 0x29BA7, size: 0x8, addend: 0x0, symName: __Z16getSubtreeHeightIiiEiP4NodeIT_T0_Ei, symObjAddr: 0xED10, symBinAddr: 0x10000F58C, symSize: 0xC4 }
  - { offsetInCU: 0x29BF3, offset: 0x29BF3, size: 0x8, addend: 0x0, symName: __ZNSt3__13mapIihNS_4lessIiEENS_9allocatorINS_4pairIKihEEEEEC1B8ue170006Ev, symObjAddr: 0xEDD4, symBinAddr: 0x10000F650, symSize: 0x2C }
  - { offsetInCU: 0x29C1D, offset: 0x29C1D, size: 0x8, addend: 0x0, symName: __ZNK16BinarySearchTreeIiiE5beginEv, symObjAddr: 0xEE00, symBinAddr: 0x10000F67C, symSize: 0x34 }
  - { offsetInCU: 0x29C54, offset: 0x29C54, size: 0x8, addend: 0x0, symName: __ZNK16BinarySearchTreeIiiE8iteratorneERKS1_, symObjAddr: 0xEE34, symBinAddr: 0x10000F6B0, symSize: 0x30 }
  - { offsetInCU: 0x29C8A, offset: 0x29C8A, size: 0x8, addend: 0x0, symName: __ZNK16BinarySearchTreeIiiE3endEv, symObjAddr: 0xEE64, symBinAddr: 0x10000F6E0, symSize: 0x2C }
  - { offsetInCU: 0x29CC1, offset: 0x29CC1, size: 0x8, addend: 0x0, symName: __Z12getNodeDepthIiiEiRK16BinarySearchTreeIT_T0_EP4NodeIS1_S2_ES8_, symObjAddr: 0xEE90, symBinAddr: 0x10000F70C, symSize: 0xBC }
  - { offsetInCU: 0x29D46, offset: 0x29D46, size: 0x8, addend: 0x0, symName: __ZNSt3__13mapIihNS_4lessIiEENS_9allocatorINS_4pairIKihEEEEE6insertB8ue170006INS4_IihEEvEENS4_INS_14__map_iteratorINS_15__tree_iteratorINS_12__value_typeIihEEPNS_11__tree_nodeISE_PvEElEEEEbEEOT_, symObjAddr: 0xEF4C, symBinAddr: 0x10000F7C8, symSize: 0x4C }
  - { offsetInCU: 0x29D85, offset: 0x29D85, size: 0x8, addend: 0x0, symName: __ZN16BinarySearchTreeIiiE8iteratorppEv, symObjAddr: 0xEFCC, symBinAddr: 0x10000F848, symSize: 0x38 }
  - { offsetInCU: 0x29DAD, offset: 0x29DAD, size: 0x8, addend: 0x0, symName: __ZNSt3__16vectorIP4NodeIiiENS_9allocatorIS3_EEEC1B8ue170006Ev, symObjAddr: 0xF004, symBinAddr: 0x10000F880, symSize: 0x2C }
  - { offsetInCU: 0x29DD7, offset: 0x29DD7, size: 0x8, addend: 0x0, symName: __ZNSt3__16vectorIP4NodeIiiENS_9allocatorIS3_EEE9push_backB8ue170006ERKS3_, symObjAddr: 0xF030, symBinAddr: 0x10000F8AC, symSize: 0x6C }
  - { offsetInCU: 0x29E0E, offset: 0x29E0E, size: 0x8, addend: 0x0, symName: __ZNSt3__16vectorIP4NodeIiiENS_9allocatorIS3_EEEixB8ue170006Em, symObjAddr: 0xF09C, symBinAddr: 0x10000F918, symSize: 0x24 }
  - { offsetInCU: 0x29E45, offset: 0x29E45, size: 0x8, addend: 0x0, symName: __ZNSt3__13mapIihNS_4lessIiEENS_9allocatorINS_4pairIKihEEEEEixERS5_, symObjAddr: 0xF0C0, symBinAddr: 0x10000F93C, symSize: 0x80 }
  - { offsetInCU: 0x29E7C, offset: 0x29E7C, size: 0x8, addend: 0x0, symName: __ZN4NodeIiiE7getItemEv, symObjAddr: 0xF140, symBinAddr: 0x10000F9BC, symSize: 0x18 }
  - { offsetInCU: 0x29EA3, offset: 0x29EA3, size: 0x8, addend: 0x0, symName: __ZNSt3__16vectorIP4NodeIiiENS_9allocatorIS3_EEEC1ERKS6_, symObjAddr: 0xF158, symBinAddr: 0x10000F9D4, symSize: 0x34 }
  - { offsetInCU: 0x29EDE, offset: 0x29EDE, size: 0x8, addend: 0x0, symName: __ZNSt3__16vectorIP4NodeIiiENS_9allocatorIS3_EEE5clearB8ue170006Ev, symObjAddr: 0xF18C, symBinAddr: 0x10000FA08, symSize: 0x44 }
  - { offsetInCU: 0x29F13, offset: 0x29F13, size: 0x8, addend: 0x0, symName: __ZNSt3__16vectorIP4NodeIiiENS_9allocatorIS3_EEE5beginB8ue170006Ev, symObjAddr: 0xF1D0, symBinAddr: 0x10000FA4C, symSize: 0x30 }
  - { offsetInCU: 0x29F3B, offset: 0x29F3B, size: 0x8, addend: 0x0, symName: __ZNSt3__16vectorIP4NodeIiiENS_9allocatorIS3_EEE3endB8ue170006Ev, symObjAddr: 0xF234, symBinAddr: 0x10000FAB0, symSize: 0x30 }
  - { offsetInCU: 0x29F63, offset: 0x29F63, size: 0x8, addend: 0x0, symName: __ZNKSt3__111__wrap_iterIPP4NodeIiiEEdeB8ue170006Ev, symObjAddr: 0xF264, symBinAddr: 0x10000FAE0, symSize: 0x18 }
  - { offsetInCU: 0x29F89, offset: 0x29F89, size: 0x8, addend: 0x0, symName: __ZNSt3__16vectorIP4NodeIiiENS_9allocatorIS3_EEE9push_backB8ue170006EOS3_, symObjAddr: 0xF27C, symBinAddr: 0x10000FAF8, symSize: 0x6C }
  - { offsetInCU: 0x29FC0, offset: 0x29FC0, size: 0x8, addend: 0x0, symName: __ZNSt3__111__wrap_iterIPP4NodeIiiEEppB8ue170006Ev, symObjAddr: 0xF2E8, symBinAddr: 0x10000FB64, symSize: 0x20 }
  - { offsetInCU: 0x29FE6, offset: 0x29FE6, size: 0x8, addend: 0x0, symName: __ZNKSt3__16vectorIP4NodeIiiENS_9allocatorIS3_EEE4sizeB8ue170006Ev, symObjAddr: 0xF308, symBinAddr: 0x10000FB84, symSize: 0x28 }
  - { offsetInCU: 0x2A00C, offset: 0x2A00C, size: 0x8, addend: 0x0, symName: __ZNSt3__16vectorIP4NodeIiiENS_9allocatorIS3_EEED1B8ue170006Ev, symObjAddr: 0xF330, symBinAddr: 0x10000FBAC, symSize: 0x2C }
  - { offsetInCU: 0x2A036, offset: 0x2A036, size: 0x8, addend: 0x0, symName: __ZNSt3__13mapIihNS_4lessIiEENS_9allocatorINS_4pairIKihEEEEE5beginB8ue170006Ev, symObjAddr: 0xF35C, symBinAddr: 0x10000FBD8, symSize: 0x38 }
  - { offsetInCU: 0x2A05C, offset: 0x2A05C, size: 0x8, addend: 0x0, symName: __ZNSt3__13mapIihNS_4lessIiEENS_9allocatorINS_4pairIKihEEEEE3endB8ue170006Ev, symObjAddr: 0xF3C4, symBinAddr: 0x10000FC40, symSize: 0x38 }
  - { offsetInCU: 0x2A082, offset: 0x2A082, size: 0x8, addend: 0x0, symName: __ZNKSt3__114__map_iteratorINS_15__tree_iteratorINS_12__value_typeIihEEPNS_11__tree_nodeIS3_PvEElEEEptB8ue170006Ev, symObjAddr: 0xF3FC, symBinAddr: 0x10000FC78, symSize: 0x2C }
  - { offsetInCU: 0x2A0A8, offset: 0x2A0A8, size: 0x8, addend: 0x0, symName: __ZNK16BinarySearchTreeIiiE8iteratoreqERKS1_, symObjAddr: 0xF428, symBinAddr: 0x10000FCA4, symSize: 0x30 }
  - { offsetInCU: 0x2A0DE, offset: 0x2A0DE, size: 0x8, addend: 0x0, symName: __ZNSt3__114__map_iteratorINS_15__tree_iteratorINS_12__value_typeIihEEPNS_11__tree_nodeIS3_PvEElEEEppB8ue170006Ev, symObjAddr: 0xF458, symBinAddr: 0x10000FCD4, symSize: 0x2C }
  - { offsetInCU: 0x2A104, offset: 0x2A104, size: 0x8, addend: 0x0, symName: __ZNSt3__13mapIihNS_4lessIiEENS_9allocatorINS_4pairIKihEEEEED1B8ue170006Ev, symObjAddr: 0xF484, symBinAddr: 0x10000FD00, symSize: 0x2C }
  - { offsetInCU: 0x2A12E, offset: 0x2A12E, size: 0x8, addend: 0x0, symName: __ZNSt3__13mapIihNS_4lessIiEENS_9allocatorINS_4pairIKihEEEEEC2B8ue170006Ev, symObjAddr: 0xF4B0, symBinAddr: 0x10000FD2C, symSize: 0x40 }
  - { offsetInCU: 0x2A158, offset: 0x2A158, size: 0x8, addend: 0x0, symName: __ZNSt3__119__map_value_compareIiNS_12__value_typeIihEENS_4lessIiEELb1EEC1B8ue170006ES4_, symObjAddr: 0xF4F0, symBinAddr: 0x10000FD6C, symSize: 0x2C }
  - { offsetInCU: 0x2A191, offset: 0x2A191, size: 0x8, addend: 0x0, symName: __ZNSt3__16__treeINS_12__value_typeIihEENS_19__map_value_compareIiS2_NS_4lessIiEELb1EEENS_9allocatorIS2_EEEC1ERKS6_, symObjAddr: 0xF51C, symBinAddr: 0x10000FD98, symSize: 0x34 }
  - { offsetInCU: 0x2A1CC, offset: 0x2A1CC, size: 0x8, addend: 0x0, symName: __ZNSt3__119__map_value_compareIiNS_12__value_typeIihEENS_4lessIiEELb1EEC2B8ue170006ES4_, symObjAddr: 0xF550, symBinAddr: 0x10000FDCC, symSize: 0x14 }
  - { offsetInCU: 0x2A205, offset: 0x2A205, size: 0x8, addend: 0x0, symName: __ZNSt3__16__treeINS_12__value_typeIihEENS_19__map_value_compareIiS2_NS_4lessIiEELb1EEENS_9allocatorIS2_EEEC2ERKS6_, symObjAddr: 0xF564, symBinAddr: 0x10000FDE0, symSize: 0x7C }
  - { offsetInCU: 0x2A240, offset: 0x2A240, size: 0x8, addend: 0x0, symName: __ZNSt3__117__compressed_pairINS_15__tree_end_nodeIPNS_16__tree_node_baseIPvEEEENS_9allocatorINS_11__tree_nodeINS_12__value_typeIihEES3_EEEEEC1B8ue170006ILb1EvEEv, symObjAddr: 0xF5E0, symBinAddr: 0x10000FE5C, symSize: 0x2C }
  - { offsetInCU: 0x2A275, offset: 0x2A275, size: 0x8, addend: 0x0, symName: __ZNSt3__117__compressed_pairImNS_19__map_value_compareIiNS_12__value_typeIihEENS_4lessIiEELb1EEEEC1B8ue170006IiRKS6_EEOT_OT0_, symObjAddr: 0xF60C, symBinAddr: 0x10000FE88, symSize: 0x3C }
  - { offsetInCU: 0x2A2CD, offset: 0x2A2CD, size: 0x8, addend: 0x0, symName: __ZNSt3__16__treeINS_12__value_typeIihEENS_19__map_value_compareIiS2_NS_4lessIiEELb1EEENS_9allocatorIS2_EEE10__end_nodeB8ue170006Ev, symObjAddr: 0xF648, symBinAddr: 0x10000FEC4, symSize: 0x2C }
  - { offsetInCU: 0x2A2F3, offset: 0x2A2F3, size: 0x8, addend: 0x0, symName: __ZNSt3__16__treeINS_12__value_typeIihEENS_19__map_value_compareIiS2_NS_4lessIiEELb1EEENS_9allocatorIS2_EEE12__begin_nodeB8ue170006Ev, symObjAddr: 0xF674, symBinAddr: 0x10000FEF0, symSize: 0x14 }
  - { offsetInCU: 0x2A319, offset: 0x2A319, size: 0x8, addend: 0x0, symName: __ZNSt3__117__compressed_pairINS_15__tree_end_nodeIPNS_16__tree_node_baseIPvEEEENS_9allocatorINS_11__tree_nodeINS_12__value_typeIihEES3_EEEEEC2B8ue170006ILb1EvEEv, symObjAddr: 0xF688, symBinAddr: 0x10000FF04, symSize: 0x34 }
  - { offsetInCU: 0x2A34E, offset: 0x2A34E, size: 0x8, addend: 0x0, symName: __ZNSt3__122__compressed_pair_elemINS_9allocatorINS_11__tree_nodeINS_12__value_typeIihEEPvEEEELi1ELb1EEC2B8ue170006ENS_16__value_init_tagE, symObjAddr: 0xF6BC, symBinAddr: 0x10000FF38, symSize: 0x2C }
  - { offsetInCU: 0x2A383, offset: 0x2A383, size: 0x8, addend: 0x0, symName: __ZNSt3__19allocatorINS_11__tree_nodeINS_12__value_typeIihEEPvEEEC2B8ue170006Ev, symObjAddr: 0xF6E8, symBinAddr: 0x10000FF64, symSize: 0x2C }
  - { offsetInCU: 0x2A3AD, offset: 0x2A3AD, size: 0x8, addend: 0x0, symName: __ZNSt3__116__non_trivial_ifILb1ENS_9allocatorINS_11__tree_nodeINS_12__value_typeIihEEPvEEEEEC2B8ue170006Ev, symObjAddr: 0xF714, symBinAddr: 0x10000FF90, symSize: 0x14 }
  - { offsetInCU: 0x2A3D7, offset: 0x2A3D7, size: 0x8, addend: 0x0, symName: __ZNSt3__117__compressed_pairImNS_19__map_value_compareIiNS_12__value_typeIihEENS_4lessIiEELb1EEEEC2B8ue170006IiRKS6_EEOT_OT0_, symObjAddr: 0xF728, symBinAddr: 0x10000FFA4, symSize: 0x44 }
  - { offsetInCU: 0x2A42F, offset: 0x2A42F, size: 0x8, addend: 0x0, symName: __ZNSt3__122__compressed_pair_elemINS_19__map_value_compareIiNS_12__value_typeIihEENS_4lessIiEELb1EEELi1ELb1EEC2B8ue170006IRKS6_vEEOT_, symObjAddr: 0xF76C, symBinAddr: 0x10000FFE8, symSize: 0x18 }
  - { offsetInCU: 0x2A471, offset: 0x2A471, size: 0x8, addend: 0x0, symName: __ZNSt3__117__compressed_pairINS_15__tree_end_nodeIPNS_16__tree_node_baseIPvEEEENS_9allocatorINS_11__tree_nodeINS_12__value_typeIihEES3_EEEEE5firstB8ue170006Ev, symObjAddr: 0xF784, symBinAddr: 0x100010000, symSize: 0x24 }
  - { offsetInCU: 0x2A497, offset: 0x2A497, size: 0x8, addend: 0x0, symName: __ZNK16BinarySearchTreeIiiE15getSmallestNodeEv, symObjAddr: 0xF7A8, symBinAddr: 0x100010024, symSize: 0x90 }
  - { offsetInCU: 0x2A4CE, offset: 0x2A4CE, size: 0x8, addend: 0x0, symName: __ZN16BinarySearchTreeIiiE8iteratorC1EP4NodeIiiE, symObjAddr: 0xF838, symBinAddr: 0x1000100B4, symSize: 0x34 }
  - { offsetInCU: 0x2A508, offset: 0x2A508, size: 0x8, addend: 0x0, symName: __ZN16BinarySearchTreeIiiE8iteratorC2EP4NodeIiiE, symObjAddr: 0xF86C, symBinAddr: 0x1000100E8, symSize: 0x20 }
  - { offsetInCU: 0x2A542, offset: 0x2A542, size: 0x8, addend: 0x0, symName: __ZNSt3__16__treeINS_12__value_typeIihEENS_19__map_value_compareIiS2_NS_4lessIiEELb1EEENS_9allocatorIS2_EEE15__insert_uniqueB8ue170006INS_4pairIihEEvEENSB_INS_15__tree_iteratorIS2_PNS_11__tree_nodeIS2_PvEElEEbEEOT_, symObjAddr: 0xF88C, symBinAddr: 0x100010108, symSize: 0x3C }
  - { offsetInCU: 0x2A581, offset: 0x2A581, size: 0x8, addend: 0x0, symName: __ZNSt3__14pairINS_14__map_iteratorINS_15__tree_iteratorINS_12__value_typeIihEEPNS_11__tree_nodeIS4_PvEElEEEEbEC1B8ue170006IS9_bLS6_0EEEONS0_IT_T0_EE, symObjAddr: 0xF8C8, symBinAddr: 0x100010144, symSize: 0x34 }
  - { offsetInCU: 0x2A5D2, offset: 0x2A5D2, size: 0x8, addend: 0x0, symName: __ZNSt3__16__treeINS_12__value_typeIihEENS_19__map_value_compareIiS2_NS_4lessIiEELb1EEENS_9allocatorIS2_EEE16__emplace_uniqueB8ue170006INS_4pairIihEEEENSB_INS_15__tree_iteratorIS2_PNS_11__tree_nodeIS2_PvEElEEbEEOT_, symObjAddr: 0xF8FC, symBinAddr: 0x100010178, symSize: 0x3C }
  - { offsetInCU: 0x2A610, offset: 0x2A610, size: 0x8, addend: 0x0, symName: __ZNSt3__16__treeINS_12__value_typeIihEENS_19__map_value_compareIiS2_NS_4lessIiEELb1EEENS_9allocatorIS2_EEE28__emplace_unique_extract_keyB8ue170006INS_4pairIihEEEENSB_INS_15__tree_iteratorIS2_PNS_11__tree_nodeIS2_PvEElEEbEEOT_NS_23__extract_key_first_tagE, symObjAddr: 0xF938, symBinAddr: 0x1000101B4, symSize: 0x40 }
  - { offsetInCU: 0x2A659, offset: 0x2A659, size: 0x8, addend: 0x0, symName: __ZNSt3__16__treeINS_12__value_typeIihEENS_19__map_value_compareIiS2_NS_4lessIiEELb1EEENS_9allocatorIS2_EEE25__emplace_unique_key_argsIiJNS_4pairIihEEEEENSB_INS_15__tree_iteratorIS2_PNS_11__tree_nodeIS2_PvEElEEbEERKT_DpOT0_, symObjAddr: 0xF978, symBinAddr: 0x1000101F4, symSize: 0xF0 }
  - { offsetInCU: 0x2A705, offset: 0x2A705, size: 0x8, addend: 0x0, symName: __ZNSt3__16__treeINS_12__value_typeIihEENS_19__map_value_compareIiS2_NS_4lessIiEELb1EEENS_9allocatorIS2_EEE12__find_equalIiEERPNS_16__tree_node_baseIPvEERPNS_15__tree_end_nodeISE_EERKT_, symObjAddr: 0xFA68, symBinAddr: 0x1000102E4, symSize: 0x184 }
  - { offsetInCU: 0x2A772, offset: 0x2A772, size: 0x8, addend: 0x0, symName: __ZNSt3__16__treeINS_12__value_typeIihEENS_19__map_value_compareIiS2_NS_4lessIiEELb1EEENS_9allocatorIS2_EEE16__construct_nodeIJNS_4pairIihEEEEENS_10unique_ptrINS_11__tree_nodeIS2_PvEENS_22__tree_node_destructorINS7_ISG_EEEEEEDpOT_, symObjAddr: 0xFBEC, symBinAddr: 0x100010468, symSize: 0x110 }
  - { offsetInCU: 0x2A7D3, offset: 0x2A7D3, size: 0x8, addend: 0x0, symName: __ZNSt3__16__treeINS_12__value_typeIihEENS_19__map_value_compareIiS2_NS_4lessIiEELb1EEENS_9allocatorIS2_EEE16__insert_node_atEPNS_15__tree_end_nodeIPNS_16__tree_node_baseIPvEEEERSE_SE_, symObjAddr: 0xFCFC, symBinAddr: 0x100010578, symSize: 0xCC }
  - { offsetInCU: 0x2A828, offset: 0x2A828, size: 0x8, addend: 0x0, symName: __ZNKSt3__110unique_ptrINS_11__tree_nodeINS_12__value_typeIihEEPvEENS_22__tree_node_destructorINS_9allocatorIS5_EEEEE3getB8ue170006Ev, symObjAddr: 0xFDC8, symBinAddr: 0x100010644, symSize: 0x28 }
  - { offsetInCU: 0x2A84E, offset: 0x2A84E, size: 0x8, addend: 0x0, symName: __ZNSt3__110unique_ptrINS_11__tree_nodeINS_12__value_typeIihEEPvEENS_22__tree_node_destructorINS_9allocatorIS5_EEEEE7releaseB8ue170006Ev, symObjAddr: 0xFDF0, symBinAddr: 0x10001066C, symSize: 0x44 }
  - { offsetInCU: 0x2A883, offset: 0x2A883, size: 0x8, addend: 0x0, symName: __ZNSt3__110unique_ptrINS_11__tree_nodeINS_12__value_typeIihEEPvEENS_22__tree_node_destructorINS_9allocatorIS5_EEEEED1B8ue170006Ev, symObjAddr: 0xFE34, symBinAddr: 0x1000106B0, symSize: 0x2C }
  - { offsetInCU: 0x2A8AD, offset: 0x2A8AD, size: 0x8, addend: 0x0, symName: __ZNSt3__115__tree_iteratorINS_12__value_typeIihEEPNS_11__tree_nodeIS2_PvEElEC1B8ue170006ES6_, symObjAddr: 0xFE60, symBinAddr: 0x1000106DC, symSize: 0x34 }
  - { offsetInCU: 0x2A8EC, offset: 0x2A8EC, size: 0x8, addend: 0x0, symName: __ZNSt3__14pairINS_15__tree_iteratorINS_12__value_typeIihEEPNS_11__tree_nodeIS3_PvEElEEbEC1B8ue170006IS8_RbLS5_0EEEOT_OT0_, symObjAddr: 0xFE94, symBinAddr: 0x100010710, symSize: 0x3C }
  - { offsetInCU: 0x2A94A, offset: 0x2A94A, size: 0x8, addend: 0x0, symName: __ZNKSt3__16__treeINS_12__value_typeIihEENS_19__map_value_compareIiS2_NS_4lessIiEELb1EEENS_9allocatorIS2_EEE6__rootB8ue170006Ev, symObjAddr: 0xFED0, symBinAddr: 0x10001074C, symSize: 0x28 }
  - { offsetInCU: 0x2A970, offset: 0x2A970, size: 0x8, addend: 0x0, symName: __ZNKSt3__16__treeINS_12__value_typeIihEENS_19__map_value_compareIiS2_NS_4lessIiEELb1EEENS_9allocatorIS2_EEE10__root_ptrB8ue170006Ev, symObjAddr: 0xFEF8, symBinAddr: 0x100010774, symSize: 0x24 }
  - { offsetInCU: 0x2A996, offset: 0x2A996, size: 0x8, addend: 0x0, symName: __ZNSt3__16__treeINS_12__value_typeIihEENS_19__map_value_compareIiS2_NS_4lessIiEELb1EEENS_9allocatorIS2_EEE10value_compB8ue170006Ev, symObjAddr: 0xFF1C, symBinAddr: 0x100010798, symSize: 0x28 }
  - { offsetInCU: 0x2A9BC, offset: 0x2A9BC, size: 0x8, addend: 0x0, symName: __ZNKSt3__119__map_value_compareIiNS_12__value_typeIihEENS_4lessIiEELb1EEclB8ue170006ERKiRKS2_, symObjAddr: 0xFF44, symBinAddr: 0x1000107C0, symSize: 0x50 }
  - { offsetInCU: 0x2AA00, offset: 0x2AA00, size: 0x8, addend: 0x0, symName: __ZNKSt3__119__map_value_compareIiNS_12__value_typeIihEENS_4lessIiEELb1EEclB8ue170006ERKS2_RKi, symObjAddr: 0xFF94, symBinAddr: 0x100010810, symSize: 0x48 }
  - { offsetInCU: 0x2AA44, offset: 0x2AA44, size: 0x8, addend: 0x0, symName: __ZNKSt3__16__treeINS_12__value_typeIihEENS_19__map_value_compareIiS2_NS_4lessIiEELb1EEENS_9allocatorIS2_EEE10__end_nodeB8ue170006Ev, symObjAddr: 0xFFDC, symBinAddr: 0x100010858, symSize: 0x2C }
  - { offsetInCU: 0x2AA6A, offset: 0x2AA6A, size: 0x8, addend: 0x0, symName: __ZNKSt3__117__compressed_pairINS_15__tree_end_nodeIPNS_16__tree_node_baseIPvEEEENS_9allocatorINS_11__tree_nodeINS_12__value_typeIihEES3_EEEEE5firstB8ue170006Ev, symObjAddr: 0x10008, symBinAddr: 0x100010884, symSize: 0x24 }
  - { offsetInCU: 0x2AA90, offset: 0x2AA90, size: 0x8, addend: 0x0, symName: __ZNSt3__117__compressed_pairImNS_19__map_value_compareIiNS_12__value_typeIihEENS_4lessIiEELb1EEEE6secondB8ue170006Ev, symObjAddr: 0x1002C, symBinAddr: 0x1000108A8, symSize: 0x24 }
  - { offsetInCU: 0x2AAB6, offset: 0x2AAB6, size: 0x8, addend: 0x0, symName: __ZNSt3__122__compressed_pair_elemINS_19__map_value_compareIiNS_12__value_typeIihEENS_4lessIiEELb1EEELi1ELb1EE5__getB8ue170006Ev, symObjAddr: 0x10050, symBinAddr: 0x1000108CC, symSize: 0x14 }
  - { offsetInCU: 0x2AADC, offset: 0x2AADC, size: 0x8, addend: 0x0, symName: __ZNKSt3__14lessIiEclB8ue170006ERKiS3_, symObjAddr: 0x10064, symBinAddr: 0x1000108E0, symSize: 0x34 }
  - { offsetInCU: 0x2AB20, offset: 0x2AB20, size: 0x8, addend: 0x0, symName: __ZNKSt3__112__value_typeIihE11__get_valueB8ue170006Ev, symObjAddr: 0x10098, symBinAddr: 0x100010914, symSize: 0x24 }
  - { offsetInCU: 0x2AB46, offset: 0x2AB46, size: 0x8, addend: 0x0, symName: __ZNSt3__16__treeINS_12__value_typeIihEENS_19__map_value_compareIiS2_NS_4lessIiEELb1EEENS_9allocatorIS2_EEE12__node_allocB8ue170006Ev, symObjAddr: 0x100F4, symBinAddr: 0x100010970, symSize: 0x28 }
  - { offsetInCU: 0x2AB6C, offset: 0x2AB6C, size: 0x8, addend: 0x0, symName: __ZNSt3__116allocator_traitsINS_9allocatorINS_11__tree_nodeINS_12__value_typeIihEEPvEEEEE8allocateB8ue170006ERS7_m, symObjAddr: 0x1011C, symBinAddr: 0x100010998, symSize: 0x2C }
  - { offsetInCU: 0x2AB9F, offset: 0x2AB9F, size: 0x8, addend: 0x0, symName: __ZNSt3__122__tree_node_destructorINS_9allocatorINS_11__tree_nodeINS_12__value_typeIihEEPvEEEEEC1B8ue170006ERS7_b, symObjAddr: 0x10148, symBinAddr: 0x1000109C4, symSize: 0x48 }
  - { offsetInCU: 0x2ABED, offset: 0x2ABED, size: 0x8, addend: 0x0, symName: __ZNSt3__110unique_ptrINS_11__tree_nodeINS_12__value_typeIihEEPvEENS_22__tree_node_destructorINS_9allocatorIS5_EEEEEC1B8ue170006ILb1EvEEPS5_NS_16__dependent_typeINS_27__unique_ptr_deleter_sfinaeIS9_EEXT_EE20__good_rval_ref_typeE, symObjAddr: 0x10190, symBinAddr: 0x100010A0C, symSize: 0x3C }
  - { offsetInCU: 0x2AC3E, offset: 0x2AC3E, size: 0x8, addend: 0x0, symName: __ZNSt3__116allocator_traitsINS_9allocatorINS_11__tree_nodeINS_12__value_typeIihEEPvEEEEE9constructB8ue170006INS_4pairIKihEEJNSA_IihEEEvEEvRS7_PT_DpOT0_, symObjAddr: 0x101CC, symBinAddr: 0x100010A48, symSize: 0x34 }
  - { offsetInCU: 0x2AC95, offset: 0x2AC95, size: 0x8, addend: 0x0, symName: __ZNSt3__122__tree_key_value_typesINS_12__value_typeIihEEE9__get_ptrB8ue170006ERS2_, symObjAddr: 0x10200, symBinAddr: 0x100010A7C, symSize: 0x24 }
  - { offsetInCU: 0x2ACB9, offset: 0x2ACB9, size: 0x8, addend: 0x0, symName: __ZNKSt3__110unique_ptrINS_11__tree_nodeINS_12__value_typeIihEEPvEENS_22__tree_node_destructorINS_9allocatorIS5_EEEEEptB8ue170006Ev, symObjAddr: 0x10224, symBinAddr: 0x100010AA0, symSize: 0x28 }
  - { offsetInCU: 0x2ACDF, offset: 0x2ACDF, size: 0x8, addend: 0x0, symName: __ZNSt3__110unique_ptrINS_11__tree_nodeINS_12__value_typeIihEEPvEENS_22__tree_node_destructorINS_9allocatorIS5_EEEEE11get_deleterB8ue170006Ev, symObjAddr: 0x1024C, symBinAddr: 0x100010AC8, symSize: 0x24 }
  - { offsetInCU: 0x2AD05, offset: 0x2AD05, size: 0x8, addend: 0x0, symName: __ZNSt3__117__compressed_pairINS_15__tree_end_nodeIPNS_16__tree_node_baseIPvEEEENS_9allocatorINS_11__tree_nodeINS_12__value_typeIihEES3_EEEEE6secondB8ue170006Ev, symObjAddr: 0x10270, symBinAddr: 0x100010AEC, symSize: 0x24 }
  - { offsetInCU: 0x2AD2B, offset: 0x2AD2B, size: 0x8, addend: 0x0, symName: __ZNSt3__122__compressed_pair_elemINS_9allocatorINS_11__tree_nodeINS_12__value_typeIihEEPvEEEELi1ELb1EE5__getB8ue170006Ev, symObjAddr: 0x10294, symBinAddr: 0x100010B10, symSize: 0x14 }
  - { offsetInCU: 0x2AD51, offset: 0x2AD51, size: 0x8, addend: 0x0, symName: __ZNSt3__19allocatorINS_11__tree_nodeINS_12__value_typeIihEEPvEEE8allocateB8ue170006Em, symObjAddr: 0x102A8, symBinAddr: 0x100010B24, symSize: 0x5C }
  - { offsetInCU: 0x2AD90, offset: 0x2AD90, size: 0x8, addend: 0x0, symName: __ZNSt3__116allocator_traitsINS_9allocatorINS_11__tree_nodeINS_12__value_typeIihEEPvEEEEE8max_sizeB8ue170006IS7_vEEmRKS7_, symObjAddr: 0x10304, symBinAddr: 0x100010B80, symSize: 0x24 }
  - { offsetInCU: 0x2ADBE, offset: 0x2ADBE, size: 0x8, addend: 0x0, symName: __ZNKSt3__19allocatorINS_11__tree_nodeINS_12__value_typeIihEEPvEEE8max_sizeB8ue170006Ev, symObjAddr: 0x10328, symBinAddr: 0x100010BA4, symSize: 0x18 }
  - { offsetInCU: 0x2ADE4, offset: 0x2ADE4, size: 0x8, addend: 0x0, symName: __ZNSt3__122__tree_node_destructorINS_9allocatorINS_11__tree_nodeINS_12__value_typeIihEEPvEEEEEC2B8ue170006ERS7_b, symObjAddr: 0x10340, symBinAddr: 0x100010BBC, symSize: 0x38 }
  - { offsetInCU: 0x2AE2C, offset: 0x2AE2C, size: 0x8, addend: 0x0, symName: __ZNSt3__110unique_ptrINS_11__tree_nodeINS_12__value_typeIihEEPvEENS_22__tree_node_destructorINS_9allocatorIS5_EEEEEC2B8ue170006ILb1EvEEPS5_NS_16__dependent_typeINS_27__unique_ptr_deleter_sfinaeIS9_EEXT_EE20__good_rval_ref_typeE, symObjAddr: 0x10378, symBinAddr: 0x100010BF4, symSize: 0x48 }
  - { offsetInCU: 0x2AE7D, offset: 0x2AE7D, size: 0x8, addend: 0x0, symName: __ZNSt3__117__compressed_pairIPNS_11__tree_nodeINS_12__value_typeIihEEPvEENS_22__tree_node_destructorINS_9allocatorIS5_EEEEEC1B8ue170006IRS6_SA_EEOT_OT0_, symObjAddr: 0x103C0, symBinAddr: 0x100010C3C, symSize: 0x3C }
  - { offsetInCU: 0x2AED5, offset: 0x2AED5, size: 0x8, addend: 0x0, symName: __ZNSt3__117__compressed_pairIPNS_11__tree_nodeINS_12__value_typeIihEEPvEENS_22__tree_node_destructorINS_9allocatorIS5_EEEEEC2B8ue170006IRS6_SA_EEOT_OT0_, symObjAddr: 0x103FC, symBinAddr: 0x100010C78, symSize: 0x48 }
  - { offsetInCU: 0x2AF2D, offset: 0x2AF2D, size: 0x8, addend: 0x0, symName: __ZNSt3__122__compressed_pair_elemIPNS_11__tree_nodeINS_12__value_typeIihEEPvEELi0ELb0EEC2B8ue170006IRS6_vEEOT_, symObjAddr: 0x10444, symBinAddr: 0x100010CC0, symSize: 0x24 }
  - { offsetInCU: 0x2AF6F, offset: 0x2AF6F, size: 0x8, addend: 0x0, symName: __ZNSt3__122__compressed_pair_elemINS_22__tree_node_destructorINS_9allocatorINS_11__tree_nodeINS_12__value_typeIihEEPvEEEEEELi1ELb0EEC2B8ue170006IS9_vEEOT_, symObjAddr: 0x10468, symBinAddr: 0x100010CE4, symSize: 0x24 }
  - { offsetInCU: 0x2AFB1, offset: 0x2AFB1, size: 0x8, addend: 0x0, symName: __ZNSt3__19allocatorINS_11__tree_nodeINS_12__value_typeIihEEPvEEE9constructB8ue170006INS_4pairIKihEEJNS8_IihEEEEEvPT_DpOT0_, symObjAddr: 0x1048C, symBinAddr: 0x100010D08, symSize: 0x30 }
  - { offsetInCU: 0x2B007, offset: 0x2B007, size: 0x8, addend: 0x0, symName: __ZNSt3__14pairIKihEC1B8ue170006IihLPv0EEEONS0_IT_T0_EE, symObjAddr: 0x104BC, symBinAddr: 0x100010D38, symSize: 0x34 }
  - { offsetInCU: 0x2B058, offset: 0x2B058, size: 0x8, addend: 0x0, symName: __ZNSt3__14pairIKihEC2B8ue170006IihLPv0EEEONS0_IT_T0_EE, symObjAddr: 0x104F0, symBinAddr: 0x100010D6C, symSize: 0x30 }
  - { offsetInCU: 0x2B0A9, offset: 0x2B0A9, size: 0x8, addend: 0x0, symName: __ZNSt3__112__value_typeIihE11__get_valueB8ue170006Ev, symObjAddr: 0x10520, symBinAddr: 0x100010D9C, symSize: 0x24 }
  - { offsetInCU: 0x2B0CF, offset: 0x2B0CF, size: 0x8, addend: 0x0, symName: __ZNKSt3__117__compressed_pairIPNS_11__tree_nodeINS_12__value_typeIihEEPvEENS_22__tree_node_destructorINS_9allocatorIS5_EEEEE5firstB8ue170006Ev, symObjAddr: 0x1057C, symBinAddr: 0x100010DF8, symSize: 0x24 }
  - { offsetInCU: 0x2B0F5, offset: 0x2B0F5, size: 0x8, addend: 0x0, symName: __ZNKSt3__122__compressed_pair_elemIPNS_11__tree_nodeINS_12__value_typeIihEEPvEELi0ELb0EE5__getB8ue170006Ev, symObjAddr: 0x105A0, symBinAddr: 0x100010E1C, symSize: 0x14 }
  - { offsetInCU: 0x2B11B, offset: 0x2B11B, size: 0x8, addend: 0x0, symName: __ZNSt3__117__compressed_pairIPNS_11__tree_nodeINS_12__value_typeIihEEPvEENS_22__tree_node_destructorINS_9allocatorIS5_EEEEE6secondB8ue170006Ev, symObjAddr: 0x105B4, symBinAddr: 0x100010E30, symSize: 0x28 }
  - { offsetInCU: 0x2B141, offset: 0x2B141, size: 0x8, addend: 0x0, symName: __ZNSt3__122__compressed_pair_elemINS_22__tree_node_destructorINS_9allocatorINS_11__tree_nodeINS_12__value_typeIihEEPvEEEEEELi1ELb0EE5__getB8ue170006Ev, symObjAddr: 0x105DC, symBinAddr: 0x100010E58, symSize: 0x14 }
  - { offsetInCU: 0x2B167, offset: 0x2B167, size: 0x8, addend: 0x0, symName: __ZNSt3__16__treeINS_12__value_typeIihEENS_19__map_value_compareIiS2_NS_4lessIiEELb1EEENS_9allocatorIS2_EEE4sizeB8ue170006Ev, symObjAddr: 0x105F0, symBinAddr: 0x100010E6C, symSize: 0x28 }
  - { offsetInCU: 0x2B18D, offset: 0x2B18D, size: 0x8, addend: 0x0, symName: __ZNSt3__117__compressed_pairImNS_19__map_value_compareIiNS_12__value_typeIihEENS_4lessIiEELb1EEEE5firstB8ue170006Ev, symObjAddr: 0x10618, symBinAddr: 0x100010E94, symSize: 0x24 }
  - { offsetInCU: 0x2B1B3, offset: 0x2B1B3, size: 0x8, addend: 0x0, symName: __ZNSt3__117__compressed_pairIPNS_11__tree_nodeINS_12__value_typeIihEEPvEENS_22__tree_node_destructorINS_9allocatorIS5_EEEEE5firstB8ue170006Ev, symObjAddr: 0x1063C, symBinAddr: 0x100010EB8, symSize: 0x24 }
  - { offsetInCU: 0x2B1D9, offset: 0x2B1D9, size: 0x8, addend: 0x0, symName: __ZNSt3__122__compressed_pair_elemIPNS_11__tree_nodeINS_12__value_typeIihEEPvEELi0ELb0EE5__getB8ue170006Ev, symObjAddr: 0x10660, symBinAddr: 0x100010EDC, symSize: 0x14 }
  - { offsetInCU: 0x2B1FF, offset: 0x2B1FF, size: 0x8, addend: 0x0, symName: __ZNSt3__110unique_ptrINS_11__tree_nodeINS_12__value_typeIihEEPvEENS_22__tree_node_destructorINS_9allocatorIS5_EEEEED2B8ue170006Ev, symObjAddr: 0x10674, symBinAddr: 0x100010EF0, symSize: 0x30 }
  - { offsetInCU: 0x2B229, offset: 0x2B229, size: 0x8, addend: 0x0, symName: __ZNSt3__110unique_ptrINS_11__tree_nodeINS_12__value_typeIihEEPvEENS_22__tree_node_destructorINS_9allocatorIS5_EEEEE5resetB8ue170006EPS5_, symObjAddr: 0x106A4, symBinAddr: 0x100010F20, symSize: 0x78 }
  - { offsetInCU: 0x2B26D, offset: 0x2B26D, size: 0x8, addend: 0x0, symName: __ZNSt3__122__tree_node_destructorINS_9allocatorINS_11__tree_nodeINS_12__value_typeIihEEPvEEEEEclB8ue170006EPS6_, symObjAddr: 0x1071C, symBinAddr: 0x100010F98, symSize: 0x98 }
  - { offsetInCU: 0x2B2A2, offset: 0x2B2A2, size: 0x8, addend: 0x0, symName: __ZNSt3__116allocator_traitsINS_9allocatorINS_11__tree_nodeINS_12__value_typeIihEEPvEEEEE7destroyB8ue170006INS_4pairIKihEEvvEEvRS7_PT_, symObjAddr: 0x107B4, symBinAddr: 0x100011030, symSize: 0x14 }
  - { offsetInCU: 0x2B2DC, offset: 0x2B2DC, size: 0x8, addend: 0x0, symName: __ZNSt3__116allocator_traitsINS_9allocatorINS_11__tree_nodeINS_12__value_typeIihEEPvEEEEE10deallocateB8ue170006ERS7_PS6_m, symObjAddr: 0x107C8, symBinAddr: 0x100011044, symSize: 0x34 }
  - { offsetInCU: 0x2B31E, offset: 0x2B31E, size: 0x8, addend: 0x0, symName: __ZNSt3__19allocatorINS_11__tree_nodeINS_12__value_typeIihEEPvEEE10deallocateB8ue170006EPS5_m, symObjAddr: 0x107FC, symBinAddr: 0x100011078, symSize: 0x44 }
  - { offsetInCU: 0x2B360, offset: 0x2B360, size: 0x8, addend: 0x0, symName: __ZNSt3__115__tree_iteratorINS_12__value_typeIihEEPNS_11__tree_nodeIS2_PvEElEC2B8ue170006ES6_, symObjAddr: 0x10840, symBinAddr: 0x1000110BC, symSize: 0x20 }
  - { offsetInCU: 0x2B399, offset: 0x2B399, size: 0x8, addend: 0x0, symName: __ZNSt3__14pairINS_15__tree_iteratorINS_12__value_typeIihEEPNS_11__tree_nodeIS3_PvEElEEbEC2B8ue170006IS8_RbLS5_0EEEOT_OT0_, symObjAddr: 0x10860, symBinAddr: 0x1000110DC, symSize: 0x38 }
  - { offsetInCU: 0x2B3F7, offset: 0x2B3F7, size: 0x8, addend: 0x0, symName: __ZNSt3__14pairINS_14__map_iteratorINS_15__tree_iteratorINS_12__value_typeIihEEPNS_11__tree_nodeIS4_PvEElEEEEbEC2B8ue170006IS9_bLS6_0EEEONS0_IT_T0_EE, symObjAddr: 0x10898, symBinAddr: 0x100011114, symSize: 0x50 }
  - { offsetInCU: 0x2B448, offset: 0x2B448, size: 0x8, addend: 0x0, symName: __ZNSt3__114__map_iteratorINS_15__tree_iteratorINS_12__value_typeIihEEPNS_11__tree_nodeIS3_PvEElEEEC1B8ue170006ES8_, symObjAddr: 0x108E8, symBinAddr: 0x100011164, symSize: 0x34 }
  - { offsetInCU: 0x2B481, offset: 0x2B481, size: 0x8, addend: 0x0, symName: __ZNSt3__114__map_iteratorINS_15__tree_iteratorINS_12__value_typeIihEEPNS_11__tree_nodeIS3_PvEElEEEC2B8ue170006ES8_, symObjAddr: 0x1091C, symBinAddr: 0x100011198, symSize: 0x20 }
  - { offsetInCU: 0x2B4BA, offset: 0x2B4BA, size: 0x8, addend: 0x0, symName: __ZNSt3__14pairIihEC1B8ue170006IRKihLPv0EEEOT_OT0_, symObjAddr: 0x1093C, symBinAddr: 0x1000111B8, symSize: 0x3C }
  - { offsetInCU: 0x2B518, offset: 0x2B518, size: 0x8, addend: 0x0, symName: __ZNSt3__14pairIihEC2B8ue170006IRKihLPv0EEEOT_OT0_, symObjAddr: 0x10978, symBinAddr: 0x1000111F4, symSize: 0x34 }
  - { offsetInCU: 0x2B576, offset: 0x2B576, size: 0x8, addend: 0x0, symName: __ZNSt3__16vectorIP4NodeIiiENS_9allocatorIS3_EEEC2B8ue170006Ev, symObjAddr: 0x109AC, symBinAddr: 0x100011228, symSize: 0x4C }
  - { offsetInCU: 0x2B5A0, offset: 0x2B5A0, size: 0x8, addend: 0x0, symName: __ZNSt3__117__compressed_pairIPP4NodeIiiENS_9allocatorIS3_EEEC1B8ue170006IDnNS_18__default_init_tagEEEOT_OT0_, symObjAddr: 0x109F8, symBinAddr: 0x100011274, symSize: 0x3C }
  - { offsetInCU: 0x2B5F8, offset: 0x2B5F8, size: 0x8, addend: 0x0, symName: __ZNSt3__117__compressed_pairIPP4NodeIiiENS_9allocatorIS3_EEEC2B8ue170006IDnNS_18__default_init_tagEEEOT_OT0_, symObjAddr: 0x10A34, symBinAddr: 0x1000112B0, symSize: 0x40 }
  - { offsetInCU: 0x2B650, offset: 0x2B650, size: 0x8, addend: 0x0, symName: __ZNSt3__122__compressed_pair_elemIPP4NodeIiiELi0ELb0EEC2B8ue170006IDnvEEOT_, symObjAddr: 0x10A74, symBinAddr: 0x1000112F0, symSize: 0x1C }
  - { offsetInCU: 0x2B692, offset: 0x2B692, size: 0x8, addend: 0x0, symName: __ZNSt3__122__compressed_pair_elemINS_9allocatorIP4NodeIiiEEELi1ELb1EEC2B8ue170006ENS_18__default_init_tagE, symObjAddr: 0x10A90, symBinAddr: 0x10001130C, symSize: 0x2C }
  - { offsetInCU: 0x2B6C7, offset: 0x2B6C7, size: 0x8, addend: 0x0, symName: __ZNSt3__19allocatorIP4NodeIiiEEC2B8ue170006Ev, symObjAddr: 0x10ABC, symBinAddr: 0x100011338, symSize: 0x2C }
  - { offsetInCU: 0x2B6F1, offset: 0x2B6F1, size: 0x8, addend: 0x0, symName: __ZNSt3__116__non_trivial_ifILb1ENS_9allocatorIP4NodeIiiEEEEC2B8ue170006Ev, symObjAddr: 0x10AE8, symBinAddr: 0x100011364, symSize: 0x14 }
  - { offsetInCU: 0x2B71B, offset: 0x2B71B, size: 0x8, addend: 0x0, symName: __ZNSt3__16vectorIP4NodeIiiENS_9allocatorIS3_EEE9__end_capB8ue170006Ev, symObjAddr: 0x10AFC, symBinAddr: 0x100011378, symSize: 0x28 }
  - { offsetInCU: 0x2B741, offset: 0x2B741, size: 0x8, addend: 0x0, symName: __ZNSt3__16vectorIP4NodeIiiENS_9allocatorIS3_EEE22__construct_one_at_endB8ue170006IJRKS3_EEEvDpOT_, symObjAddr: 0x10B24, symBinAddr: 0x1000113A0, symSize: 0x90 }
  - { offsetInCU: 0x2B790, offset: 0x2B790, size: 0x8, addend: 0x0, symName: __ZNSt3__16vectorIP4NodeIiiENS_9allocatorIS3_EEE21__push_back_slow_pathIRKS3_EEvOT_, symObjAddr: 0x10BB4, symBinAddr: 0x100011430, symSize: 0xD8 }
  - { offsetInCU: 0x2B7EE, offset: 0x2B7EE, size: 0x8, addend: 0x0, symName: __ZNSt3__117__compressed_pairIPP4NodeIiiENS_9allocatorIS3_EEE5firstB8ue170006Ev, symObjAddr: 0x10C8C, symBinAddr: 0x100011508, symSize: 0x24 }
  - { offsetInCU: 0x2B814, offset: 0x2B814, size: 0x8, addend: 0x0, symName: __ZNSt3__122__compressed_pair_elemIPP4NodeIiiELi0ELb0EE5__getB8ue170006Ev, symObjAddr: 0x10CB0, symBinAddr: 0x10001152C, symSize: 0x14 }
  - { offsetInCU: 0x2B855, offset: 0x2B855, size: 0x8, addend: 0x0, symName: __ZNSt3__16vectorIP4NodeIiiENS_9allocatorIS3_EEE21_ConstructTransactionC1B8ue170006ERS6_m, symObjAddr: 0x10CC4, symBinAddr: 0x100011540, symSize: 0x3C }
  - { offsetInCU: 0x2B89D, offset: 0x2B89D, size: 0x8, addend: 0x0, symName: __ZNSt3__116allocator_traitsINS_9allocatorIP4NodeIiiEEEE9constructB8ue170006IS4_JRKS4_EvEEvRS5_PT_DpOT0_, symObjAddr: 0x10D00, symBinAddr: 0x10001157C, symSize: 0x34 }
  - { offsetInCU: 0x2B8F4, offset: 0x2B8F4, size: 0x8, addend: 0x0, symName: __ZNSt3__16vectorIP4NodeIiiENS_9allocatorIS3_EEE7__allocB8ue170006Ev, symObjAddr: 0x10D34, symBinAddr: 0x1000115B0, symSize: 0x28 }
  - { offsetInCU: 0x2B91A, offset: 0x2B91A, size: 0x8, addend: 0x0, symName: __ZNSt3__16vectorIP4NodeIiiENS_9allocatorIS3_EEE21_ConstructTransactionD1B8ue170006Ev, symObjAddr: 0x10D70, symBinAddr: 0x1000115EC, symSize: 0x2C }
  - { offsetInCU: 0x2B944, offset: 0x2B944, size: 0x8, addend: 0x0, symName: __ZNSt3__16vectorIP4NodeIiiENS_9allocatorIS3_EEE21_ConstructTransactionC2B8ue170006ERS6_m, symObjAddr: 0x10D9C, symBinAddr: 0x100011618, symSize: 0x44 }
  - { offsetInCU: 0x2B98C, offset: 0x2B98C, size: 0x8, addend: 0x0, symName: __ZNSt3__19allocatorIP4NodeIiiEE9constructB8ue170006IS3_JRKS3_EEEvPT_DpOT0_, symObjAddr: 0x10DE0, symBinAddr: 0x10001165C, symSize: 0x28 }
  - { offsetInCU: 0x2B9E2, offset: 0x2B9E2, size: 0x8, addend: 0x0, symName: __ZNSt3__117__compressed_pairIPP4NodeIiiENS_9allocatorIS3_EEE6secondB8ue170006Ev, symObjAddr: 0x10E08, symBinAddr: 0x100011684, symSize: 0x24 }
  - { offsetInCU: 0x2BA08, offset: 0x2BA08, size: 0x8, addend: 0x0, symName: __ZNSt3__122__compressed_pair_elemINS_9allocatorIP4NodeIiiEEELi1ELb1EE5__getB8ue170006Ev, symObjAddr: 0x10E2C, symBinAddr: 0x1000116A8, symSize: 0x14 }
  - { offsetInCU: 0x2BA2E, offset: 0x2BA2E, size: 0x8, addend: 0x0, symName: __ZNSt3__16vectorIP4NodeIiiENS_9allocatorIS3_EEE21_ConstructTransactionD2B8ue170006Ev, symObjAddr: 0x10E40, symBinAddr: 0x1000116BC, symSize: 0x20 }
  - { offsetInCU: 0x2BA58, offset: 0x2BA58, size: 0x8, addend: 0x0, symName: __ZNKSt3__16vectorIP4NodeIiiENS_9allocatorIS3_EEE11__recommendB8ue170006Em, symObjAddr: 0x10E60, symBinAddr: 0x1000116DC, symSize: 0xB4 }
  - { offsetInCU: 0x2BAAD, offset: 0x2BAAD, size: 0x8, addend: 0x0, symName: __ZNSt3__114__split_bufferIP4NodeIiiERNS_9allocatorIS3_EEEC1EmmS6_, symObjAddr: 0x10F14, symBinAddr: 0x100011790, symSize: 0x44 }
  - { offsetInCU: 0x2BB03, offset: 0x2BB03, size: 0x8, addend: 0x0, symName: __ZNSt3__114__split_bufferIP4NodeIiiERNS_9allocatorIS3_EEED1Ev, symObjAddr: 0x11068, symBinAddr: 0x1000118E4, symSize: 0x2C }
  - { offsetInCU: 0x2BB2F, offset: 0x2BB2F, size: 0x8, addend: 0x0, symName: __ZNKSt3__16vectorIP4NodeIiiENS_9allocatorIS3_EEE8max_sizeEv, symObjAddr: 0x11094, symBinAddr: 0x100011910, symSize: 0x60 }
  - { offsetInCU: 0x2BB57, offset: 0x2BB57, size: 0x8, addend: 0x0, symName: __ZNKSt3__16vectorIP4NodeIiiENS_9allocatorIS3_EEE20__throw_length_errorB8ue170006Ev, symObjAddr: 0x110F4, symBinAddr: 0x100011970, symSize: 0x1C }
  - { offsetInCU: 0x2BB7D, offset: 0x2BB7D, size: 0x8, addend: 0x0, symName: __ZNKSt3__16vectorIP4NodeIiiENS_9allocatorIS3_EEE8capacityB8ue170006Ev, symObjAddr: 0x11110, symBinAddr: 0x10001198C, symSize: 0x40 }
  - { offsetInCU: 0x2BBAE, offset: 0x2BBAE, size: 0x8, addend: 0x0, symName: __ZNSt3__116allocator_traitsINS_9allocatorIP4NodeIiiEEEE8max_sizeB8ue170006IS5_vEEmRKS5_, symObjAddr: 0x11150, symBinAddr: 0x1000119CC, symSize: 0x24 }
  - { offsetInCU: 0x2BBDC, offset: 0x2BBDC, size: 0x8, addend: 0x0, symName: __ZNKSt3__16vectorIP4NodeIiiENS_9allocatorIS3_EEE7__allocB8ue170006Ev, symObjAddr: 0x11174, symBinAddr: 0x1000119F0, symSize: 0x28 }
  - { offsetInCU: 0x2BC02, offset: 0x2BC02, size: 0x8, addend: 0x0, symName: __ZNKSt3__19allocatorIP4NodeIiiEE8max_sizeB8ue170006Ev, symObjAddr: 0x1119C, symBinAddr: 0x100011A18, symSize: 0x14 }
  - { offsetInCU: 0x2BC28, offset: 0x2BC28, size: 0x8, addend: 0x0, symName: __ZNKSt3__117__compressed_pairIPP4NodeIiiENS_9allocatorIS3_EEE6secondB8ue170006Ev, symObjAddr: 0x111B0, symBinAddr: 0x100011A2C, symSize: 0x24 }
  - { offsetInCU: 0x2BC4E, offset: 0x2BC4E, size: 0x8, addend: 0x0, symName: __ZNKSt3__122__compressed_pair_elemINS_9allocatorIP4NodeIiiEEELi1ELb1EE5__getB8ue170006Ev, symObjAddr: 0x111D4, symBinAddr: 0x100011A50, symSize: 0x14 }
  - { offsetInCU: 0x2BC74, offset: 0x2BC74, size: 0x8, addend: 0x0, symName: __ZNKSt3__16vectorIP4NodeIiiENS_9allocatorIS3_EEE9__end_capB8ue170006Ev, symObjAddr: 0x111E8, symBinAddr: 0x100011A64, symSize: 0x28 }
  - { offsetInCU: 0x2BC9A, offset: 0x2BC9A, size: 0x8, addend: 0x0, symName: __ZNKSt3__117__compressed_pairIPP4NodeIiiENS_9allocatorIS3_EEE5firstB8ue170006Ev, symObjAddr: 0x11210, symBinAddr: 0x100011A8C, symSize: 0x24 }
  - { offsetInCU: 0x2BCC0, offset: 0x2BCC0, size: 0x8, addend: 0x0, symName: __ZNKSt3__122__compressed_pair_elemIPP4NodeIiiELi0ELb0EE5__getB8ue170006Ev, symObjAddr: 0x11234, symBinAddr: 0x100011AB0, symSize: 0x14 }
  - { offsetInCU: 0x2BCE6, offset: 0x2BCE6, size: 0x8, addend: 0x0, symName: __ZNSt3__114__split_bufferIP4NodeIiiERNS_9allocatorIS3_EEEC2EmmS6_, symObjAddr: 0x11248, symBinAddr: 0x100011AC4, symSize: 0xD4 }
  - { offsetInCU: 0x2BD5A, offset: 0x2BD5A, size: 0x8, addend: 0x0, symName: __ZNSt3__117__compressed_pairIPP4NodeIiiERNS_9allocatorIS3_EEEC1B8ue170006IDnS7_EEOT_OT0_, symObjAddr: 0x1131C, symBinAddr: 0x100011B98, symSize: 0x3C }
  - { offsetInCU: 0x2BDB2, offset: 0x2BDB2, size: 0x8, addend: 0x0, symName: __ZNSt3__114__split_bufferIP4NodeIiiERNS_9allocatorIS3_EEE7__allocB8ue170006Ev, symObjAddr: 0x11398, symBinAddr: 0x100011C14, symSize: 0x28 }
  - { offsetInCU: 0x2BDD8, offset: 0x2BDD8, size: 0x8, addend: 0x0, symName: __ZNSt3__114__split_bufferIP4NodeIiiERNS_9allocatorIS3_EEE9__end_capB8ue170006Ev, symObjAddr: 0x113C0, symBinAddr: 0x100011C3C, symSize: 0x28 }
  - { offsetInCU: 0x2BDFE, offset: 0x2BDFE, size: 0x8, addend: 0x0, symName: __ZNSt3__117__compressed_pairIPP4NodeIiiERNS_9allocatorIS3_EEEC2B8ue170006IDnS7_EEOT_OT0_, symObjAddr: 0x113E8, symBinAddr: 0x100011C64, symSize: 0x48 }
  - { offsetInCU: 0x2BE56, offset: 0x2BE56, size: 0x8, addend: 0x0, symName: __ZNSt3__122__compressed_pair_elemIRNS_9allocatorIP4NodeIiiEEELi1ELb0EEC2B8ue170006IS6_vEEOT_, symObjAddr: 0x11430, symBinAddr: 0x100011CAC, symSize: 0x20 }
  - { offsetInCU: 0x2BE98, offset: 0x2BE98, size: 0x8, addend: 0x0, symName: __ZNSt3__19allocatorIP4NodeIiiEE8allocateB8ue170006Em, symObjAddr: 0x11450, symBinAddr: 0x100011CCC, symSize: 0x58 }
  - { offsetInCU: 0x2BECC, offset: 0x2BECC, size: 0x8, addend: 0x0, symName: __ZNSt3__117__compressed_pairIPP4NodeIiiERNS_9allocatorIS3_EEE6secondB8ue170006Ev, symObjAddr: 0x114A8, symBinAddr: 0x100011D24, symSize: 0x28 }
  - { offsetInCU: 0x2BEF2, offset: 0x2BEF2, size: 0x8, addend: 0x0, symName: __ZNSt3__122__compressed_pair_elemIRNS_9allocatorIP4NodeIiiEEELi1ELb0EE5__getB8ue170006Ev, symObjAddr: 0x114D0, symBinAddr: 0x100011D4C, symSize: 0x18 }
  - { offsetInCU: 0x2BF18, offset: 0x2BF18, size: 0x8, addend: 0x0, symName: __ZNSt3__117__compressed_pairIPP4NodeIiiERNS_9allocatorIS3_EEE5firstB8ue170006Ev, symObjAddr: 0x114E8, symBinAddr: 0x100011D64, symSize: 0x24 }
  - { offsetInCU: 0x2BF3E, offset: 0x2BF3E, size: 0x8, addend: 0x0, symName: __ZNKSt3__16vectorIP4NodeIiiENS_9allocatorIS3_EEE17__annotate_deleteB8ue170006Ev, symObjAddr: 0x1150C, symBinAddr: 0x100011D88, symSize: 0xB8 }
  - { offsetInCU: 0x2BF64, offset: 0x2BF64, size: 0x8, addend: 0x0, symName: __ZNSt3__116reverse_iteratorIPP4NodeIiiEEC1B8ue170006ES4_, symObjAddr: 0x1163C, symBinAddr: 0x100011EB8, symSize: 0x34 }
  - { offsetInCU: 0x2BF9C, offset: 0x2BF9C, size: 0x8, addend: 0x0, symName: __ZNKSt3__116reverse_iteratorIPP4NodeIiiEE4baseB8ue170006Ev, symObjAddr: 0x11670, symBinAddr: 0x100011EEC, symSize: 0x18 }
  - { offsetInCU: 0x2BFC2, offset: 0x2BFC2, size: 0x8, addend: 0x0, symName: __ZNKSt3__16vectorIP4NodeIiiENS_9allocatorIS3_EEE14__annotate_newB8ue170006Em, symObjAddr: 0x116C4, symBinAddr: 0x100011F40, symSize: 0xAC }
  - { offsetInCU: 0x2BFF7, offset: 0x2BFF7, size: 0x8, addend: 0x0, symName: __ZNKSt3__16vectorIP4NodeIiiENS_9allocatorIS3_EEE31__annotate_contiguous_containerB8ue170006EPKvS8_S8_S8_, symObjAddr: 0x11770, symBinAddr: 0x100011FEC, symSize: 0x20 }
  - { offsetInCU: 0x2C049, offset: 0x2C049, size: 0x8, addend: 0x0, symName: __ZNKSt3__16vectorIP4NodeIiiENS_9allocatorIS3_EEE4dataB8ue170006Ev, symObjAddr: 0x11790, symBinAddr: 0x10001200C, symSize: 0x28 }
  - { offsetInCU: 0x2C08B, offset: 0x2C08B, size: 0x8, addend: 0x0, symName: __ZNKSt3__111__move_loopINS_17_ClassicAlgPolicyEEclB8ue170006INS_16reverse_iteratorIPP4NodeIiiEEES9_S9_EENS_4pairIT_T1_EESB_T0_SC_, symObjAddr: 0x11AA8, symBinAddr: 0x100012324, symSize: 0xA0 }
  - { offsetInCU: 0x2C0FC, offset: 0x2C0FC, size: 0x8, addend: 0x0, symName: __ZNSt3__18_IterOpsINS_17_ClassicAlgPolicyEE11__iter_moveB8ue170006IRNS_16reverse_iteratorIPP4NodeIiiEEEEENS_9enable_ifIXsr12is_referenceIDTdeclsr3stdE7declvalIRT_EEEEE5valueEDTclsr3stdE4movedeclsr3stdE7declvalISD_EEEEE4typeEOSC_, symObjAddr: 0x11CDC, symBinAddr: 0x100012558, symSize: 0x28 }
  - { offsetInCU: 0x2C128, offset: 0x2C128, size: 0x8, addend: 0x0, symName: __ZNKSt3__116reverse_iteratorIPP4NodeIiiEEdeB8ue170006Ev, symObjAddr: 0x11D04, symBinAddr: 0x100012580, symSize: 0x28 }
  - { offsetInCU: 0x2C15D, offset: 0x2C15D, size: 0x8, addend: 0x0, symName: __ZNSt3__116reverse_iteratorIPP4NodeIiiEEppB8ue170006Ev, symObjAddr: 0x11D2C, symBinAddr: 0x1000125A8, symSize: 0x20 }
  - { offsetInCU: 0x2C183, offset: 0x2C183, size: 0x8, addend: 0x0, symName: __ZNSt3__18_IterOpsINS_17_ClassicAlgPolicyEE25__validate_iter_referenceB8ue170006IRNS_16reverse_iteratorIPP4NodeIiiEEEEEvv, symObjAddr: 0x11D4C, symBinAddr: 0x1000125C8, symSize: 0x4 }
  - { offsetInCU: 0x2C1A1, offset: 0x2C1A1, size: 0x8, addend: 0x0, symName: __ZNSt3__118__unwrap_iter_implINS_16reverse_iteratorIPP4NodeIiiEEELb0EE8__unwrapB8ue170006ES6_, symObjAddr: 0x11D50, symBinAddr: 0x1000125CC, symSize: 0x24 }
  - { offsetInCU: 0x2C1CA, offset: 0x2C1CA, size: 0x8, addend: 0x0, symName: __ZNSt3__14pairINS_16reverse_iteratorIPP4NodeIiiEEES6_EC1B8ue170006IS6_S6_LPv0EEEOT_OT0_, symObjAddr: 0x11D74, symBinAddr: 0x1000125F0, symSize: 0x3C }
  - { offsetInCU: 0x2C228, offset: 0x2C228, size: 0x8, addend: 0x0, symName: __ZNSt3__14pairINS_16reverse_iteratorIPP4NodeIiiEEES6_EC2B8ue170006IS6_S6_LPv0EEEOT_OT0_, symObjAddr: 0x11DB0, symBinAddr: 0x10001262C, symSize: 0x34 }
  - { offsetInCU: 0x2C286, offset: 0x2C286, size: 0x8, addend: 0x0, symName: __ZNSt3__118__unwrap_iter_implINS_16reverse_iteratorIPP4NodeIiiEEELb0EE8__rewrapB8ue170006ES6_S6_, symObjAddr: 0x11DE4, symBinAddr: 0x100012660, symSize: 0x2C }
  - { offsetInCU: 0x2C2B4, offset: 0x2C2B4, size: 0x8, addend: 0x0, symName: __ZNSt3__116reverse_iteratorIPP4NodeIiiEEC2B8ue170006ES4_, symObjAddr: 0x11E10, symBinAddr: 0x10001268C, symSize: 0x28 }
  - { offsetInCU: 0x2C2EC, offset: 0x2C2EC, size: 0x8, addend: 0x0, symName: __ZNSt3__114__split_bufferIP4NodeIiiERNS_9allocatorIS3_EEED2Ev, symObjAddr: 0x11E38, symBinAddr: 0x1000126B4, symSize: 0x8C }
  - { offsetInCU: 0x2C318, offset: 0x2C318, size: 0x8, addend: 0x0, symName: __ZNSt3__114__split_bufferIP4NodeIiiERNS_9allocatorIS3_EEE5clearB8ue170006Ev, symObjAddr: 0x11EC4, symBinAddr: 0x100012740, symSize: 0x28 }
  - { offsetInCU: 0x2C33E, offset: 0x2C33E, size: 0x8, addend: 0x0, symName: __ZNSt3__116allocator_traitsINS_9allocatorIP4NodeIiiEEEE10deallocateB8ue170006ERS5_PS4_m, symObjAddr: 0x11EEC, symBinAddr: 0x100012768, symSize: 0x34 }
  - { offsetInCU: 0x2C380, offset: 0x2C380, size: 0x8, addend: 0x0, symName: __ZNKSt3__114__split_bufferIP4NodeIiiERNS_9allocatorIS3_EEE8capacityB8ue170006Ev, symObjAddr: 0x11F20, symBinAddr: 0x10001279C, symSize: 0x40 }
  - { offsetInCU: 0x2C3A6, offset: 0x2C3A6, size: 0x8, addend: 0x0, symName: __ZNSt3__114__split_bufferIP4NodeIiiERNS_9allocatorIS3_EEE17__destruct_at_endB8ue170006EPS3_, symObjAddr: 0x11F60, symBinAddr: 0x1000127DC, symSize: 0x2C }
  - { offsetInCU: 0x2C3DA, offset: 0x2C3DA, size: 0x8, addend: 0x0, symName: __ZNSt3__114__split_bufferIP4NodeIiiERNS_9allocatorIS3_EEE17__destruct_at_endB8ue170006EPS3_NS_17integral_constantIbLb0EEE, symObjAddr: 0x11F8C, symBinAddr: 0x100012808, symSize: 0x80 }
  - { offsetInCU: 0x2C41B, offset: 0x2C41B, size: 0x8, addend: 0x0, symName: __ZNSt3__116allocator_traitsINS_9allocatorIP4NodeIiiEEEE7destroyB8ue170006IS4_vEEvRS5_PT_, symObjAddr: 0x1200C, symBinAddr: 0x100012888, symSize: 0x2C }
  - { offsetInCU: 0x2C458, offset: 0x2C458, size: 0x8, addend: 0x0, symName: __ZNSt3__19allocatorIP4NodeIiiEE7destroyB8ue170006EPS3_, symObjAddr: 0x12038, symBinAddr: 0x1000128B4, symSize: 0x14 }
  - { offsetInCU: 0x2C48C, offset: 0x2C48C, size: 0x8, addend: 0x0, symName: __ZNSt3__19allocatorIP4NodeIiiEE10deallocateB8ue170006EPS3_m, symObjAddr: 0x1204C, symBinAddr: 0x1000128C8, symSize: 0x40 }
  - { offsetInCU: 0x2C4CE, offset: 0x2C4CE, size: 0x8, addend: 0x0, symName: __ZNKSt3__114__split_bufferIP4NodeIiiERNS_9allocatorIS3_EEE9__end_capB8ue170006Ev, symObjAddr: 0x1208C, symBinAddr: 0x100012908, symSize: 0x28 }
  - { offsetInCU: 0x2C4F4, offset: 0x2C4F4, size: 0x8, addend: 0x0, symName: __ZNKSt3__117__compressed_pairIPP4NodeIiiERNS_9allocatorIS3_EEE5firstB8ue170006Ev, symObjAddr: 0x120B4, symBinAddr: 0x100012930, symSize: 0x24 }
  - { offsetInCU: 0x2C51A, offset: 0x2C51A, size: 0x8, addend: 0x0, symName: __ZNSt3__16__treeINS_12__value_typeIihEENS_19__map_value_compareIiS2_NS_4lessIiEELb1EEENS_9allocatorIS2_EEE25__emplace_unique_key_argsIiJRKNS_21piecewise_construct_tENS_5tupleIJRKiEEENSE_IJEEEEEENS_4pairINS_15__tree_iteratorIS2_PNS_11__tree_nodeIS2_PvEElEEbEERKT_DpOT0_, symObjAddr: 0x120D8, symBinAddr: 0x100012954, symSize: 0x100 }
  - { offsetInCU: 0x2C5F0, offset: 0x2C5F0, size: 0x8, addend: 0x0, symName: __ZNKSt3__115__tree_iteratorINS_12__value_typeIihEEPNS_11__tree_nodeIS2_PvEElEptB8ue170006Ev, symObjAddr: 0x12204, symBinAddr: 0x100012A80, symSize: 0x2C }
  - { offsetInCU: 0x2C616, offset: 0x2C616, size: 0x8, addend: 0x0, symName: __ZNSt3__16__treeINS_12__value_typeIihEENS_19__map_value_compareIiS2_NS_4lessIiEELb1EEENS_9allocatorIS2_EEE16__construct_nodeIJRKNS_21piecewise_construct_tENS_5tupleIJRKiEEENSE_IJEEEEEENS_10unique_ptrINS_11__tree_nodeIS2_PvEENS_22__tree_node_destructorINS7_ISM_EEEEEEDpOT_, symObjAddr: 0x12230, symBinAddr: 0x100012AAC, symSize: 0x120 }
  - { offsetInCU: 0x2C69F, offset: 0x2C69F, size: 0x8, addend: 0x0, symName: __ZNSt3__116allocator_traitsINS_9allocatorINS_11__tree_nodeINS_12__value_typeIihEEPvEEEEE9constructB8ue170006INS_4pairIKihEEJRKNS_21piecewise_construct_tENS_5tupleIJRSB_EEENSG_IJEEEEvEEvRS7_PT_DpOT0_, symObjAddr: 0x12350, symBinAddr: 0x100012BCC, symSize: 0x44 }
  - { offsetInCU: 0x2C71E, offset: 0x2C71E, size: 0x8, addend: 0x0, symName: __ZNSt3__19allocatorINS_11__tree_nodeINS_12__value_typeIihEEPvEEE9constructB8ue170006INS_4pairIKihEEJRKNS_21piecewise_construct_tENS_5tupleIJRS9_EEENSE_IJEEEEEEvPT_DpOT0_, symObjAddr: 0x12394, symBinAddr: 0x100012C10, symSize: 0x44 }
  - { offsetInCU: 0x2C79A, offset: 0x2C79A, size: 0x8, addend: 0x0, symName: __ZNSt3__14pairIKihEC1B8ue170006IJRS1_EJEEENS_21piecewise_construct_tENS_5tupleIJDpT_EEENS6_IJDpT0_EEE, symObjAddr: 0x123D8, symBinAddr: 0x100012C54, symSize: 0x44 }
  - { offsetInCU: 0x2C801, offset: 0x2C801, size: 0x8, addend: 0x0, symName: __ZNSt3__14pairIKihEC1B8ue170006IJRS1_EJEJLm0EEJEEENS_21piecewise_construct_tERNS_5tupleIJDpT_EEERNS6_IJDpT0_EEENS_15__tuple_indicesIJXspT1_EEEENSF_IJXspT2_EEEE, symObjAddr: 0x1241C, symBinAddr: 0x100012C98, symSize: 0x3C }
  - { offsetInCU: 0x2C88E, offset: 0x2C88E, size: 0x8, addend: 0x0, symName: __ZNSt3__14pairIKihEC2B8ue170006IJRS1_EJEJLm0EEJEEENS_21piecewise_construct_tERNS_5tupleIJDpT_EEERNS6_IJDpT0_EEENS_15__tuple_indicesIJXspT1_EEEENSF_IJXspT2_EEEE, symObjAddr: 0x12458, symBinAddr: 0x100012CD4, symSize: 0x48 }
  - { offsetInCU: 0x2C91B, offset: 0x2C91B, size: 0x8, addend: 0x0, symName: __ZNSt3__112__tuple_leafILm0ERKiLb0EE3getB8ue170006Ev, symObjAddr: 0x124C4, symBinAddr: 0x100012D40, symSize: 0x18 }
  - { offsetInCU: 0x2C941, offset: 0x2C941, size: 0x8, addend: 0x0, symName: __ZNSt3__15tupleIJRKiEEC1B8ue170006INS_4_AndELi0EEES2_, symObjAddr: 0x124DC, symBinAddr: 0x100012D58, symSize: 0x34 }
  - { offsetInCU: 0x2C989, offset: 0x2C989, size: 0x8, addend: 0x0, symName: __ZNSt3__15tupleIJRKiEEC2B8ue170006INS_4_AndELi0EEES2_, symObjAddr: 0x12510, symBinAddr: 0x100012D8C, symSize: 0x34 }
  - { offsetInCU: 0x2C9D1, offset: 0x2C9D1, size: 0x8, addend: 0x0, symName: __ZNSt3__112__tuple_implINS_15__tuple_indicesIJLm0EEEEJRKiEEC1B8ue170006IJLm0EEJS4_EJEJEJS4_EEENS1_IJXspT_EEEENS_13__tuple_typesIJDpT0_EEENS1_IJXspT1_EEEENS8_IJDpT2_EEEDpOT3_, symObjAddr: 0x12544, symBinAddr: 0x100012DC0, symSize: 0x34 }
  - { offsetInCU: 0x2CA62, offset: 0x2CA62, size: 0x8, addend: 0x0, symName: __ZNSt3__112__tuple_implINS_15__tuple_indicesIJLm0EEEEJRKiEEC2B8ue170006IJLm0EEJS4_EJEJEJS4_EEENS1_IJXspT_EEEENS_13__tuple_typesIJDpT0_EEENS1_IJXspT1_EEEENS8_IJDpT2_EEEDpOT3_, symObjAddr: 0x12578, symBinAddr: 0x100012DF4, symSize: 0x34 }
  - { offsetInCU: 0x2CAF3, offset: 0x2CAF3, size: 0x8, addend: 0x0, symName: __ZNSt3__112__tuple_leafILm0ERKiLb0EEC2B8ue170006IS2_vEEOT_, symObjAddr: 0x125AC, symBinAddr: 0x100012E28, symSize: 0x20 }
  - { offsetInCU: 0x2CB36, offset: 0x2CB36, size: 0x8, addend: 0x0, symName: __ZNSt3__114pointer_traitsIPNS_12__value_typeIihEEE10pointer_toB8ue170006ERS2_, symObjAddr: 0x125CC, symBinAddr: 0x100012E48, symSize: 0x14 }
  - { offsetInCU: 0x2CB59, offset: 0x2CB59, size: 0x8, addend: 0x0, symName: __ZNKSt3__115__tree_iteratorINS_12__value_typeIihEEPNS_11__tree_nodeIS2_PvEElE8__get_npB8ue170006Ev, symObjAddr: 0x125E0, symBinAddr: 0x100012E5C, symSize: 0x18 }
  - { offsetInCU: 0x2CB7F, offset: 0x2CB7F, size: 0x8, addend: 0x0, symName: __ZNSt3__16vectorIP4NodeIiiENS_9allocatorIS3_EEEC2ERKS6_, symObjAddr: 0x125F8, symBinAddr: 0x100012E74, symSize: 0x94 }
  - { offsetInCU: 0x2CBBA, offset: 0x2CBBA, size: 0x8, addend: 0x0, symName: __ZNSt3__116allocator_traitsINS_9allocatorIP4NodeIiiEEEE37select_on_container_copy_constructionB8ue170006IS5_vvEES5_RKS5_, symObjAddr: 0x1268C, symBinAddr: 0x100012F08, symSize: 0x10 }
  - { offsetInCU: 0x2CBEF, offset: 0x2CBEF, size: 0x8, addend: 0x0, symName: __ZNSt3__117__compressed_pairIPP4NodeIiiENS_9allocatorIS3_EEEC1B8ue170006IDnS6_EEOT_OT0_, symObjAddr: 0x1269C, symBinAddr: 0x100012F18, symSize: 0x3C }
  - { offsetInCU: 0x2CC47, offset: 0x2CC47, size: 0x8, addend: 0x0, symName: __ZNSt3__16vectorIP4NodeIiiENS_9allocatorIS3_EEE16__init_with_sizeB8ue170006IPS3_S8_EEvT_T0_m, symObjAddr: 0x126D8, symBinAddr: 0x100012F54, symSize: 0xB8 }
  - { offsetInCU: 0x2CCBB, offset: 0x2CCBB, size: 0x8, addend: 0x0, symName: __ZNSt3__117__compressed_pairIPP4NodeIiiENS_9allocatorIS3_EEEC2B8ue170006IDnS6_EEOT_OT0_, symObjAddr: 0x12790, symBinAddr: 0x10001300C, symSize: 0x44 }
  - { offsetInCU: 0x2CD13, offset: 0x2CD13, size: 0x8, addend: 0x0, symName: __ZNSt3__122__compressed_pair_elemINS_9allocatorIP4NodeIiiEEELi1ELb1EEC2B8ue170006IS5_vEEOT_, symObjAddr: 0x127D4, symBinAddr: 0x100013050, symSize: 0x18 }
  - { offsetInCU: 0x2CD55, offset: 0x2CD55, size: 0x8, addend: 0x0, symName: __ZNSt3__16vectorIP4NodeIiiENS_9allocatorIS3_EEE16__destroy_vectorC1B8ue170006ERS6_, symObjAddr: 0x1282C, symBinAddr: 0x1000130A8, symSize: 0x34 }
  - { offsetInCU: 0x2CD8E, offset: 0x2CD8E, size: 0x8, addend: 0x0, symName: __ZNSt3__16vectorIP4NodeIiiENS_9allocatorIS3_EEE11__vallocateB8ue170006Em, symObjAddr: 0x12860, symBinAddr: 0x1000130DC, symSize: 0xAC }
  - { offsetInCU: 0x2CDD2, offset: 0x2CDD2, size: 0x8, addend: 0x0, symName: __ZNSt3__16vectorIP4NodeIiiENS_9allocatorIS3_EEE18__construct_at_endIPS3_S8_EEvT_T0_m, symObjAddr: 0x1290C, symBinAddr: 0x100013188, symSize: 0x8C }
  - { offsetInCU: 0x2CE48, offset: 0x2CE48, size: 0x8, addend: 0x0, symName: __ZNSt3__128__exception_guard_exceptionsINS_6vectorIP4NodeIiiENS_9allocatorIS4_EEE16__destroy_vectorEE10__completeB8ue170006Ev, symObjAddr: 0x12998, symBinAddr: 0x100013214, symSize: 0x1C }
  - { offsetInCU: 0x2CE6E, offset: 0x2CE6E, size: 0x8, addend: 0x0, symName: __ZNSt3__128__exception_guard_exceptionsINS_6vectorIP4NodeIiiENS_9allocatorIS4_EEE16__destroy_vectorEED1B8ue170006Ev, symObjAddr: 0x129B4, symBinAddr: 0x100013230, symSize: 0x2C }
  - { offsetInCU: 0x2CE98, offset: 0x2CE98, size: 0x8, addend: 0x0, symName: __ZNSt3__128__exception_guard_exceptionsINS_6vectorIP4NodeIiiENS_9allocatorIS4_EEE16__destroy_vectorEEC1B8ue170006ES8_, symObjAddr: 0x129E0, symBinAddr: 0x10001325C, symSize: 0x34 }
  - { offsetInCU: 0x2CED0, offset: 0x2CED0, size: 0x8, addend: 0x0, symName: __ZNSt3__128__exception_guard_exceptionsINS_6vectorIP4NodeIiiENS_9allocatorIS4_EEE16__destroy_vectorEEC2B8ue170006ES8_, symObjAddr: 0x12A14, symBinAddr: 0x100013290, symSize: 0x24 }
  - { offsetInCU: 0x2CF08, offset: 0x2CF08, size: 0x8, addend: 0x0, symName: __ZNSt3__16vectorIP4NodeIiiENS_9allocatorIS3_EEE16__destroy_vectorC2B8ue170006ERS6_, symObjAddr: 0x12A38, symBinAddr: 0x1000132B4, symSize: 0x20 }
  - { offsetInCU: 0x2CF63, offset: 0x2CF63, size: 0x8, addend: 0x0, symName: __ZNSt3__14pairIPP4NodeIiiES4_EC1B8ue170006IS4_S4_LPv0EEEOT_OT0_, symObjAddr: 0x12C08, symBinAddr: 0x100013484, symSize: 0x3C }
  - { offsetInCU: 0x2CFC1, offset: 0x2CFC1, size: 0x8, addend: 0x0, symName: __ZNSt3__14pairIPP4NodeIiiES4_EC2B8ue170006IS4_S4_LPv0EEEOT_OT0_, symObjAddr: 0x12C44, symBinAddr: 0x1000134C0, symSize: 0x34 }
  - { offsetInCU: 0x2D01F, offset: 0x2D01F, size: 0x8, addend: 0x0, symName: __ZNKSt3__114__copy_trivialclB8ue170006IP4NodeIiiES4_Li0EEENS_4pairIPT_PT0_EES7_S7_S9_, symObjAddr: 0x12DF4, symBinAddr: 0x100013670, symSize: 0x48 }
  - { offsetInCU: 0x2D087, offset: 0x2D087, size: 0x8, addend: 0x0, symName: __ZNSt3__14pairIPP4NodeIiiES4_EC1B8ue170006IRS4_S4_LPv0EEEOT_OT0_, symObjAddr: 0x12F84, symBinAddr: 0x100013800, symSize: 0x3C }
  - { offsetInCU: 0x2D0E5, offset: 0x2D0E5, size: 0x8, addend: 0x0, symName: __ZNSt3__14pairIPP4NodeIiiES4_EC2B8ue170006IRS4_S4_LPv0EEEOT_OT0_, symObjAddr: 0x12FC0, symBinAddr: 0x10001383C, symSize: 0x34 }
  - { offsetInCU: 0x2D143, offset: 0x2D143, size: 0x8, addend: 0x0, symName: __ZNSt3__118__unwrap_iter_implIPP4NodeIiiELb1EE8__unwrapB8ue170006ES4_, symObjAddr: 0x12FF4, symBinAddr: 0x100013870, symSize: 0x24 }
  - { offsetInCU: 0x2D166, offset: 0x2D166, size: 0x8, addend: 0x0, symName: __ZNSt3__118__unwrap_iter_implIPP4NodeIiiELb1EE8__rewrapB8ue170006ES4_S4_, symObjAddr: 0x13018, symBinAddr: 0x100013894, symSize: 0x50 }
  - { offsetInCU: 0x2D197, offset: 0x2D197, size: 0x8, addend: 0x0, symName: __ZNSt3__128__exception_guard_exceptionsINS_6vectorIP4NodeIiiENS_9allocatorIS4_EEE16__destroy_vectorEED2B8ue170006Ev, symObjAddr: 0x13068, symBinAddr: 0x1000138E4, symSize: 0x50 }
  - { offsetInCU: 0x2D1C1, offset: 0x2D1C1, size: 0x8, addend: 0x0, symName: __ZNSt3__16vectorIP4NodeIiiENS_9allocatorIS3_EEE16__destroy_vectorclB8ue170006Ev, symObjAddr: 0x130B8, symBinAddr: 0x100013934, symSize: 0x90 }
  - { offsetInCU: 0x2D1E7, offset: 0x2D1E7, size: 0x8, addend: 0x0, symName: __ZNSt3__16vectorIP4NodeIiiENS_9allocatorIS3_EEE7__clearB8ue170006Ev, symObjAddr: 0x13148, symBinAddr: 0x1000139C4, symSize: 0x28 }
  - { offsetInCU: 0x2D20D, offset: 0x2D20D, size: 0x8, addend: 0x0, symName: __ZNSt3__16vectorIP4NodeIiiENS_9allocatorIS3_EEE22__base_destruct_at_endB8ue170006EPS3_, symObjAddr: 0x13170, symBinAddr: 0x1000139EC, symSize: 0x8C }
  - { offsetInCU: 0x2D251, offset: 0x2D251, size: 0x8, addend: 0x0, symName: __ZNKSt3__16vectorIP4NodeIiiENS_9allocatorIS3_EEE17__annotate_shrinkB8ue170006Em, symObjAddr: 0x131FC, symBinAddr: 0x100013A78, symSize: 0xB4 }
  - { offsetInCU: 0x2D286, offset: 0x2D286, size: 0x8, addend: 0x0, symName: __ZNSt3__16vectorIP4NodeIiiENS_9allocatorIS3_EEE11__make_iterB8ue170006EPS3_, symObjAddr: 0x132B0, symBinAddr: 0x100013B2C, symSize: 0x30 }
  - { offsetInCU: 0x2D2BB, offset: 0x2D2BB, size: 0x8, addend: 0x0, symName: __ZNSt3__111__wrap_iterIPP4NodeIiiEEC1B8ue170006ES4_, symObjAddr: 0x132E0, symBinAddr: 0x100013B5C, symSize: 0x34 }
  - { offsetInCU: 0x2D2F3, offset: 0x2D2F3, size: 0x8, addend: 0x0, symName: __ZNSt3__111__wrap_iterIPP4NodeIiiEEC2B8ue170006ES4_, symObjAddr: 0x13314, symBinAddr: 0x100013B90, symSize: 0x20 }
  - { offsetInCU: 0x2D32B, offset: 0x2D32B, size: 0x8, addend: 0x0, symName: __ZNKSt3__111__wrap_iterIPP4NodeIiiEE4baseB8ue170006Ev, symObjAddr: 0x1337C, symBinAddr: 0x100013BF8, symSize: 0x18 }
  - { offsetInCU: 0x2D351, offset: 0x2D351, size: 0x8, addend: 0x0, symName: __ZNSt3__16vectorIP4NodeIiiENS_9allocatorIS3_EEE22__construct_one_at_endB8ue170006IJS3_EEEvDpOT_, symObjAddr: 0x13394, symBinAddr: 0x100013C10, symSize: 0x90 }
  - { offsetInCU: 0x2D3A0, offset: 0x2D3A0, size: 0x8, addend: 0x0, symName: __ZNSt3__16vectorIP4NodeIiiENS_9allocatorIS3_EEE21__push_back_slow_pathIS3_EEvOT_, symObjAddr: 0x13424, symBinAddr: 0x100013CA0, symSize: 0xD8 }
  - { offsetInCU: 0x2D3FE, offset: 0x2D3FE, size: 0x8, addend: 0x0, symName: __ZNSt3__116allocator_traitsINS_9allocatorIP4NodeIiiEEEE9constructB8ue170006IS4_JS4_EvEEvRS5_PT_DpOT0_, symObjAddr: 0x134FC, symBinAddr: 0x100013D78, symSize: 0x34 }
  - { offsetInCU: 0x2D455, offset: 0x2D455, size: 0x8, addend: 0x0, symName: __ZNSt3__19allocatorIP4NodeIiiEE9constructB8ue170006IS3_JS3_EEEvPT_DpOT0_, symObjAddr: 0x13530, symBinAddr: 0x100013DAC, symSize: 0x28 }
  - { offsetInCU: 0x2D4AB, offset: 0x2D4AB, size: 0x8, addend: 0x0, symName: __ZNSt3__16vectorIP4NodeIiiENS_9allocatorIS3_EEED2B8ue170006Ev, symObjAddr: 0x13558, symBinAddr: 0x100013DD4, symSize: 0x40 }
  - { offsetInCU: 0x2D4D5, offset: 0x2D4D5, size: 0x8, addend: 0x0, symName: __ZNSt3__16__treeINS_12__value_typeIihEENS_19__map_value_compareIiS2_NS_4lessIiEELb1EEENS_9allocatorIS2_EEE5beginB8ue170006Ev, symObjAddr: 0x13598, symBinAddr: 0x100013E14, symSize: 0x34 }
  - { offsetInCU: 0x2D4FB, offset: 0x2D4FB, size: 0x8, addend: 0x0, symName: __ZNSt3__115__tree_iteratorINS_12__value_typeIihEEPNS_11__tree_nodeIS2_PvEElEC1B8ue170006EPNS_15__tree_end_nodeIPNS_16__tree_node_baseIS4_EEEE, symObjAddr: 0x135CC, symBinAddr: 0x100013E48, symSize: 0x34 }
  - { offsetInCU: 0x2D534, offset: 0x2D534, size: 0x8, addend: 0x0, symName: __ZNSt3__115__tree_iteratorINS_12__value_typeIihEEPNS_11__tree_nodeIS2_PvEElEC2B8ue170006EPNS_15__tree_end_nodeIPNS_16__tree_node_baseIS4_EEEE, symObjAddr: 0x13600, symBinAddr: 0x100013E7C, symSize: 0x20 }
  - { offsetInCU: 0x2D56D, offset: 0x2D56D, size: 0x8, addend: 0x0, symName: __ZNSt3__16__treeINS_12__value_typeIihEENS_19__map_value_compareIiS2_NS_4lessIiEELb1EEENS_9allocatorIS2_EEE3endB8ue170006Ev, symObjAddr: 0x13684, symBinAddr: 0x100013F00, symSize: 0x34 }
  - { offsetInCU: 0x2D593, offset: 0x2D593, size: 0x8, addend: 0x0, symName: __ZNSt3__114pointer_traitsIPNS_4pairIKihEEE10pointer_toB8ue170006ERS3_, symObjAddr: 0x136B8, symBinAddr: 0x100013F34, symSize: 0x14 }
  - { offsetInCU: 0x2D5B6, offset: 0x2D5B6, size: 0x8, addend: 0x0, symName: __ZNSt3__115__tree_iteratorINS_12__value_typeIihEEPNS_11__tree_nodeIS2_PvEElEppB8ue170006Ev, symObjAddr: 0x136CC, symBinAddr: 0x100013F48, symSize: 0x38 }
  - { offsetInCU: 0x2D5DC, offset: 0x2D5DC, size: 0x8, addend: 0x0, symName: __ZNSt3__13mapIihNS_4lessIiEENS_9allocatorINS_4pairIKihEEEEED2B8ue170006Ev, symObjAddr: 0x13704, symBinAddr: 0x100013F80, symSize: 0x2C }
  - { offsetInCU: 0x2D606, offset: 0x2D606, size: 0x8, addend: 0x0, symName: __ZNSt3__16__treeINS_12__value_typeIihEENS_19__map_value_compareIiS2_NS_4lessIiEELb1EEENS_9allocatorIS2_EEED1Ev, symObjAddr: 0x13730, symBinAddr: 0x100013FAC, symSize: 0x2C }
  - { offsetInCU: 0x2D632, offset: 0x2D632, size: 0x8, addend: 0x0, symName: __ZNSt3__16__treeINS_12__value_typeIihEENS_19__map_value_compareIiS2_NS_4lessIiEELb1EEENS_9allocatorIS2_EEED2Ev, symObjAddr: 0x1375C, symBinAddr: 0x100013FD8, symSize: 0x38 }
  - { offsetInCU: 0x2D65E, offset: 0x2D65E, size: 0x8, addend: 0x0, symName: __ZNSt3__16__treeINS_12__value_typeIihEENS_19__map_value_compareIiS2_NS_4lessIiEELb1EEENS_9allocatorIS2_EEE7destroyEPNS_11__tree_nodeIS2_PvEE, symObjAddr: 0x13794, symBinAddr: 0x100014010, symSize: 0xA8 }
  - { offsetInCU: 0x2D6AA, offset: 0x2D6AA, size: 0x8, addend: 0x0, symName: __ZNK7AVLNodeIiiE9getHeightEv, symObjAddr: 0x1383C, symBinAddr: 0x1000140B8, symSize: 0x18 }
  - { offsetInCU: 0x2D6D1, offset: 0x2D6D1, size: 0x8, addend: 0x0, symName: __ZN7AVLNodeIiiE9setHeightEi, symObjAddr: 0x13854, symBinAddr: 0x1000140D0, symSize: 0x20 }
  - { offsetInCU: 0x2D706, offset: 0x2D706, size: 0x8, addend: 0x0, symName: __ZNSt3__14pairIiiEC1B8ue170006IRiS3_LPv0EEEOT_OT0_, symObjAddr: 0x13874, symBinAddr: 0x1000140F0, symSize: 0x3C }
  - { offsetInCU: 0x2D764, offset: 0x2D764, size: 0x8, addend: 0x0, symName: __ZNSt3__14pairIiiEC2B8ue170006IRiS3_LPv0EEEOT_OT0_, symObjAddr: 0x138B0, symBinAddr: 0x10001412C, symSize: 0x34 }
  - { offsetInCU: 0x2D7C2, offset: 0x2D7C2, size: 0x8, addend: 0x0, symName: __ZNSt3__14pairIKiiEC2B8ue170006IiiLPv0EEEONS0_IT_T0_EE, symObjAddr: 0x138E4, symBinAddr: 0x100014160, symSize: 0x30 }
  - { offsetInCU: 0x2D813, offset: 0x2D813, size: 0x8, addend: 0x0, symName: __ZN7AVLTreeIiiED2Ev, symObjAddr: 0x13914, symBinAddr: 0x100014190, symSize: 0x2C }
  - { offsetInCU: 0x2D83F, offset: 0x2D83F, size: 0x8, addend: 0x0, symName: __ZN19AVL_SampleCase_TestD2Ev, symObjAddr: 0x13940, symBinAddr: 0x1000141BC, symSize: 0x2C }
  - { offsetInCU: 0x2D869, offset: 0x2D869, size: 0x8, addend: 0x0, symName: __ZN29AVL_Random50InsertRemove_TestD2Ev, symObjAddr: 0x1396C, symBinAddr: 0x1000141E8, symSize: 0x2C }
  - { offsetInCU: 0x2D893, offset: 0x2D893, size: 0x8, addend: 0x0, symName: __ZNSt3__112basic_stringIcNS_11char_traitsIcEENS_9allocatorIcEEEC2B8ue170006ILi0EEEPKc, symObjAddr: 0x13998, symBinAddr: 0x100014214, symSize: 0x58 }
  - { offsetInCU: 0x2D8D2, offset: 0x2D8D2, size: 0x8, addend: 0x0, symName: __ZN7testing4Test13SetUpTestCaseEv, symObjAddr: 0x13A38, symBinAddr: 0x1000142B4, symSize: 0x4 }
  - { offsetInCU: 0x2D8E6, offset: 0x2D8E6, size: 0x8, addend: 0x0, symName: __ZN7testing4Test14SetUpTestSuiteEv, symObjAddr: 0x13A3C, symBinAddr: 0x1000142B8, symSize: 0x4 }
  - { offsetInCU: 0x2D915, offset: 0x2D915, size: 0x8, addend: 0x0, symName: __ZN7testing8internal8GTestLog9GetStreamEv, symObjAddr: 0x13A40, symBinAddr: 0x1000142BC, symSize: 0x18 }
  - { offsetInCU: 0x2D93B, offset: 0x2D93B, size: 0x8, addend: 0x0, symName: __ZN7testing4Test16TearDownTestCaseEv, symObjAddr: 0x13A58, symBinAddr: 0x1000142D4, symSize: 0x4 }
  - { offsetInCU: 0x2D94F, offset: 0x2D94F, size: 0x8, addend: 0x0, symName: __ZN7testing4Test17TearDownTestSuiteEv, symObjAddr: 0x13A5C, symBinAddr: 0x1000142D8, symSize: 0x4 }
  - { offsetInCU: 0x2D963, offset: 0x2D963, size: 0x8, addend: 0x0, symName: __ZN7AVLNodeINSt3__112basic_stringIcNS0_11char_traitsIcEENS0_9allocatorIcEEEES6_EC1ERKS6_S9_PS7_, symObjAddr: 0x13A60, symBinAddr: 0x1000142DC, symSize: 0x44 }
  - { offsetInCU: 0x2D9B8, offset: 0x2D9B8, size: 0x8, addend: 0x0, symName: __ZN7AVLTreeINSt3__112basic_stringIcNS0_11char_traitsIcEENS0_9allocatorIcEEEES6_E9insertFixEP7AVLNodeIS6_S6_ESA_, symObjAddr: 0x13AA4, symBinAddr: 0x100014320, symSize: 0x10C }
  - { offsetInCU: 0x2DA1A, offset: 0x2DA1A, size: 0x8, addend: 0x0, symName: __ZN7AVLNodeINSt3__112basic_stringIcNS0_11char_traitsIcEENS0_9allocatorIcEEEES6_EC2ERKS6_S9_PS7_, symObjAddr: 0x13BB0, symBinAddr: 0x10001442C, symSize: 0x64 }
  - { offsetInCU: 0x2DA6F, offset: 0x2DA6F, size: 0x8, addend: 0x0, symName: __ZN7AVLNodeINSt3__112basic_stringIcNS0_11char_traitsIcEENS0_9allocatorIcEEEES6_ED1Ev, symObjAddr: 0x13C14, symBinAddr: 0x100014490, symSize: 0x2C }
  - { offsetInCU: 0x2DA9A, offset: 0x2DA9A, size: 0x8, addend: 0x0, symName: __ZN7AVLNodeINSt3__112basic_stringIcNS0_11char_traitsIcEENS0_9allocatorIcEEEES6_ED0Ev, symObjAddr: 0x13C40, symBinAddr: 0x1000144BC, symSize: 0x30 }
  - { offsetInCU: 0x2DAC5, offset: 0x2DAC5, size: 0x8, addend: 0x0, symName: __ZNK7AVLNodeINSt3__112basic_stringIcNS0_11char_traitsIcEENS0_9allocatorIcEEEES6_E9getParentEv, symObjAddr: 0x13C70, symBinAddr: 0x1000144EC, symSize: 0x18 }
  - { offsetInCU: 0x2DAEC, offset: 0x2DAEC, size: 0x8, addend: 0x0, symName: __ZNK7AVLNodeINSt3__112basic_stringIcNS0_11char_traitsIcEENS0_9allocatorIcEEEES6_E7getLeftEv, symObjAddr: 0x13C88, symBinAddr: 0x100014504, symSize: 0x18 }
  - { offsetInCU: 0x2DB13, offset: 0x2DB13, size: 0x8, addend: 0x0, symName: __ZNK7AVLNodeINSt3__112basic_stringIcNS0_11char_traitsIcEENS0_9allocatorIcEEEES6_E8getRightEv, symObjAddr: 0x13CA0, symBinAddr: 0x10001451C, symSize: 0x18 }
  - { offsetInCU: 0x2DB3A, offset: 0x2DB3A, size: 0x8, addend: 0x0, symName: __ZN7AVLNodeINSt3__112basic_stringIcNS0_11char_traitsIcEENS0_9allocatorIcEEEES6_ED2Ev, symObjAddr: 0x13CB8, symBinAddr: 0x100014534, symSize: 0x2C }
  - { offsetInCU: 0x2DB65, offset: 0x2DB65, size: 0x8, addend: 0x0, symName: __Z9verifyBSTINSt3__112basic_stringIcNS0_11char_traitsIcEENS0_9allocatorIcEEEES6_EN7testing15AssertionResultER16BinarySearchTreeIT_T0_E, symObjAddr: 0x13CE4, symBinAddr: 0x100014560, symSize: 0x134 }
  - { offsetInCU: 0x2DBB2, offset: 0x2DBB2, size: 0x8, addend: 0x0, symName: __Z15checkAVLBalanceINSt3__112basic_stringIcNS0_11char_traitsIcEENS0_9allocatorIcEEEES6_EN7testing15AssertionResultER7AVLTreeIT_T0_E, symObjAddr: 0x13E18, symBinAddr: 0x100014694, symSize: 0xC8 }
  - { offsetInCU: 0x2DBF0, offset: 0x2DBF0, size: 0x8, addend: 0x0, symName: __ZNK16BinarySearchTreeINSt3__112basic_stringIcNS0_11char_traitsIcEENS0_9allocatorIcEEEES6_E5printEv, symObjAddr: 0x13EE0, symBinAddr: 0x10001475C, symSize: 0x44 }
  - { offsetInCU: 0x2DC18, offset: 0x2DC18, size: 0x8, addend: 0x0, symName: __Z11isValidTreeINSt3__112basic_stringIcNS0_11char_traitsIcEENS0_9allocatorIcEEEES6_EN7testing15AssertionResultER16BinarySearchTreeIT_T0_E, symObjAddr: 0x13F24, symBinAddr: 0x1000147A0, symSize: 0x5C }
  - { offsetInCU: 0x2DC56, offset: 0x2DC56, size: 0x8, addend: 0x0, symName: __Z19checkValidTraversalINSt3__112basic_stringIcNS0_11char_traitsIcEENS0_9allocatorIcEEEES6_EN7testing15AssertionResultEP4NodeIT_T0_E, symObjAddr: 0x13F80, symBinAddr: 0x1000147FC, symSize: 0x6F0 }
  - { offsetInCU: 0x2DCE9, offset: 0x2DCE9, size: 0x8, addend: 0x0, symName: __ZN7testing15AssertionResultlsIA19_cEERS0_RKT_, symObjAddr: 0x14670, symBinAddr: 0x100014EEC, symSize: 0x84 }
  - { offsetInCU: 0x2DD26, offset: 0x2DD26, size: 0x8, addend: 0x0, symName: __ZN7testing15AssertionResultlsINSt3__112basic_stringIcNS2_11char_traitsIcEENS2_9allocatorIcEEEEEERS0_RKT_, symObjAddr: 0x146F4, symBinAddr: 0x100014F70, symSize: 0x84 }
  - { offsetInCU: 0x2DD7C, offset: 0x2DD7C, size: 0x8, addend: 0x0, symName: __ZN7testing15AssertionResultlsIA5_cEERS0_RKT_, symObjAddr: 0x14778, symBinAddr: 0x100014FF4, symSize: 0x84 }
  - { offsetInCU: 0x2DDD2, offset: 0x2DDD2, size: 0x8, addend: 0x0, symName: __ZN7testing15AssertionResultlsIA75_cEERS0_RKT_, symObjAddr: 0x147FC, symBinAddr: 0x100015078, symSize: 0x84 }
  - { offsetInCU: 0x2DE28, offset: 0x2DE28, size: 0x8, addend: 0x0, symName: __ZN7testing15AssertionResultlsIA40_cEERS0_RKT_, symObjAddr: 0x14880, symBinAddr: 0x1000150FC, symSize: 0x84 }
  - { offsetInCU: 0x2DE7E, offset: 0x2DE7E, size: 0x8, addend: 0x0, symName: __ZN7testing15AssertionResultlsIA20_cEERS0_RKT_, symObjAddr: 0x14904, symBinAddr: 0x100015180, symSize: 0x84 }
  - { offsetInCU: 0x2DED4, offset: 0x2DED4, size: 0x8, addend: 0x0, symName: __ZN7testing15AssertionResultlsIA46_cEERS0_RKT_, symObjAddr: 0x14988, symBinAddr: 0x100015204, symSize: 0x84 }
  - { offsetInCU: 0x2DF2A, offset: 0x2DF2A, size: 0x8, addend: 0x0, symName: __ZN7testing15AssertionResultlsIA65_cEERS0_RKT_, symObjAddr: 0x14A0C, symBinAddr: 0x100015288, symSize: 0x84 }
  - { offsetInCU: 0x2DF67, offset: 0x2DF67, size: 0x8, addend: 0x0, symName: __ZN7testing15AssertionResult13AppendMessageERKNS_7MessageE, symObjAddr: 0x14A90, symBinAddr: 0x10001530C, symSize: 0xC4 }
  - { offsetInCU: 0x2DF9B, offset: 0x2DF9B, size: 0x8, addend: 0x0, symName: __ZN7testing7MessagelsIA19_cEERS0_RKT_, symObjAddr: 0x14B54, symBinAddr: 0x1000153D0, symSize: 0x3C }
  - { offsetInCU: 0x2E005, offset: 0x2E005, size: 0x8, addend: 0x0, symName: __ZNSt3__110unique_ptrINS_12basic_stringIcNS_11char_traitsIcEENS_9allocatorIcEEEENS_14default_deleteIS6_EEEaSB8ue170006EOS9_, symObjAddr: 0x14BFC, symBinAddr: 0x100015478, symSize: 0x50 }
  - { offsetInCU: 0x2E039, offset: 0x2E039, size: 0x8, addend: 0x0, symName: __ZNSt3__112basic_stringIcNS_11char_traitsIcEENS_9allocatorIcEEEC1B8ue170006Ev, symObjAddr: 0x14C4C, symBinAddr: 0x1000154C8, symSize: 0x2C }
  - { offsetInCU: 0x2E063, offset: 0x2E063, size: 0x8, addend: 0x0, symName: __ZNSt3__110unique_ptrINS_12basic_stringIcNS_11char_traitsIcEENS_9allocatorIcEEEENS_14default_deleteIS6_EEEC1B8ue170006ILb1EvEEPS6_, symObjAddr: 0x14C78, symBinAddr: 0x1000154F4, symSize: 0x34 }
  - { offsetInCU: 0x2E0A6, offset: 0x2E0A6, size: 0x8, addend: 0x0, symName: __ZNSt3__112basic_stringIcNS_11char_traitsIcEENS_9allocatorIcEEEC2B8ue170006Ev, symObjAddr: 0x14CAC, symBinAddr: 0x100015528, symSize: 0x44 }
  - { offsetInCU: 0x2E0D0, offset: 0x2E0D0, size: 0x8, addend: 0x0, symName: __ZNSt3__110unique_ptrINS_12basic_stringIcNS_11char_traitsIcEENS_9allocatorIcEEEENS_14default_deleteIS6_EEEC2B8ue170006ILb1EvEEPS6_, symObjAddr: 0x14CF0, symBinAddr: 0x10001556C, symSize: 0x44 }
  - { offsetInCU: 0x2E11F, offset: 0x2E11F, size: 0x8, addend: 0x0, symName: __ZNSt3__117__compressed_pairIPNS_12basic_stringIcNS_11char_traitsIcEENS_9allocatorIcEEEENS_14default_deleteIS6_EEEC1B8ue170006IRS7_NS_16__value_init_tagEEEOT_OT0_, symObjAddr: 0x14D34, symBinAddr: 0x1000155B0, symSize: 0x3C }
  - { offsetInCU: 0x2E177, offset: 0x2E177, size: 0x8, addend: 0x0, symName: __ZNSt3__117__compressed_pairIPNS_12basic_stringIcNS_11char_traitsIcEENS_9allocatorIcEEEENS_14default_deleteIS6_EEEC2B8ue170006IRS7_NS_16__value_init_tagEEEOT_OT0_, symObjAddr: 0x14D70, symBinAddr: 0x1000155EC, symSize: 0x40 }
  - { offsetInCU: 0x2E1CF, offset: 0x2E1CF, size: 0x8, addend: 0x0, symName: __ZNSt3__122__compressed_pair_elemIPNS_12basic_stringIcNS_11char_traitsIcEENS_9allocatorIcEEEELi0ELb0EEC2B8ue170006IRS7_vEEOT_, symObjAddr: 0x14DB0, symBinAddr: 0x10001562C, symSize: 0x24 }
  - { offsetInCU: 0x2E211, offset: 0x2E211, size: 0x8, addend: 0x0, symName: __ZNSt3__122__compressed_pair_elemINS_14default_deleteINS_12basic_stringIcNS_11char_traitsIcEENS_9allocatorIcEEEEEELi1ELb1EEC2B8ue170006ENS_16__value_init_tagE, symObjAddr: 0x14DD4, symBinAddr: 0x100015650, symSize: 0x14 }
  - { offsetInCU: 0x2E246, offset: 0x2E246, size: 0x8, addend: 0x0, symName: __ZNSt3__110unique_ptrINS_12basic_stringIcNS_11char_traitsIcEENS_9allocatorIcEEEENS_14default_deleteIS6_EEE7releaseB8ue170006Ev, symObjAddr: 0x14DE8, symBinAddr: 0x100015664, symSize: 0x44 }
  - { offsetInCU: 0x2E27B, offset: 0x2E27B, size: 0x8, addend: 0x0, symName: __ZNSt3__110unique_ptrINS_12basic_stringIcNS_11char_traitsIcEENS_9allocatorIcEEEENS_14default_deleteIS6_EEE11get_deleterB8ue170006Ev, symObjAddr: 0x14E2C, symBinAddr: 0x1000156A8, symSize: 0x24 }
  - { offsetInCU: 0x2E2A1, offset: 0x2E2A1, size: 0x8, addend: 0x0, symName: __ZNKSt3__110unique_ptrINS_18basic_stringstreamIcNS_11char_traitsIcEENS_9allocatorIcEEEENS_14default_deleteIS6_EEEdeB8ue170006Ev, symObjAddr: 0x14E50, symBinAddr: 0x1000156CC, symSize: 0x28 }
  - { offsetInCU: 0x2E2C7, offset: 0x2E2C7, size: 0x8, addend: 0x0, symName: __ZNKSt3__117__compressed_pairIPNS_18basic_stringstreamIcNS_11char_traitsIcEENS_9allocatorIcEEEENS_14default_deleteIS6_EEE5firstB8ue170006Ev, symObjAddr: 0x14E78, symBinAddr: 0x1000156F4, symSize: 0x24 }
  - { offsetInCU: 0x2E2ED, offset: 0x2E2ED, size: 0x8, addend: 0x0, symName: __ZNKSt3__122__compressed_pair_elemIPNS_18basic_stringstreamIcNS_11char_traitsIcEENS_9allocatorIcEEEELi0ELb0EE5__getB8ue170006Ev, symObjAddr: 0x14E9C, symBinAddr: 0x100015718, symSize: 0x14 }
  - { offsetInCU: 0x2E313, offset: 0x2E313, size: 0x8, addend: 0x0, symName: __ZN7testing7MessagelsINSt3__112basic_stringIcNS2_11char_traitsIcEENS2_9allocatorIcEEEEEERS0_RKT_, symObjAddr: 0x14EB0, symBinAddr: 0x10001572C, symSize: 0x3C }
  - { offsetInCU: 0x2E357, offset: 0x2E357, size: 0x8, addend: 0x0, symName: __ZN7testing7MessagelsIA5_cEERS0_RKT_, symObjAddr: 0x14EEC, symBinAddr: 0x100015768, symSize: 0x3C }
  - { offsetInCU: 0x2E39B, offset: 0x2E39B, size: 0x8, addend: 0x0, symName: __ZN7testing7MessagelsIA75_cEERS0_RKT_, symObjAddr: 0x14F28, symBinAddr: 0x1000157A4, symSize: 0x3C }
  - { offsetInCU: 0x2E3DF, offset: 0x2E3DF, size: 0x8, addend: 0x0, symName: __ZN7testing7MessagelsIA40_cEERS0_RKT_, symObjAddr: 0x14F64, symBinAddr: 0x1000157E0, symSize: 0x3C }
  - { offsetInCU: 0x2E423, offset: 0x2E423, size: 0x8, addend: 0x0, symName: __ZN7testing7MessagelsIA20_cEERS0_RKT_, symObjAddr: 0x14FA0, symBinAddr: 0x10001581C, symSize: 0x3C }
  - { offsetInCU: 0x2E467, offset: 0x2E467, size: 0x8, addend: 0x0, symName: __ZN7testing7MessagelsIA46_cEERS0_RKT_, symObjAddr: 0x14FDC, symBinAddr: 0x100015858, symSize: 0x3C }
  - { offsetInCU: 0x2E4AB, offset: 0x2E4AB, size: 0x8, addend: 0x0, symName: __ZN7testing7MessagelsIA65_cEERS0_RKT_, symObjAddr: 0x15018, symBinAddr: 0x100015894, symSize: 0x3C }
  - { offsetInCU: 0x2E4EF, offset: 0x2E4EF, size: 0x8, addend: 0x0, symName: __Z25verifyAVLBalanceRecursiveINSt3__112basic_stringIcNS0_11char_traitsIcEENS0_9allocatorIcEEEES6_ENS0_4pairIiN7testing15AssertionResultEEER7AVLTreeIT_T0_EP7AVLNodeISC_SD_E, symObjAddr: 0x15054, symBinAddr: 0x1000158D0, symSize: 0x398 }
  - { offsetInCU: 0x2E596, offset: 0x2E596, size: 0x8, addend: 0x0, symName: __ZNSt3__14pairIiN7testing15AssertionResultEED1Ev, symObjAddr: 0x153EC, symBinAddr: 0x100015C68, symSize: 0x2C }
  - { offsetInCU: 0x2E5DB, offset: 0x2E5DB, size: 0x8, addend: 0x0, symName: __ZN7testing15AssertionResultlsIA38_cEERS0_RKT_, symObjAddr: 0x154D8, symBinAddr: 0x100015D54, symSize: 0x84 }
  - { offsetInCU: 0x2E631, offset: 0x2E631, size: 0x8, addend: 0x0, symName: __ZN7testing15AssertionResultlsIA44_cEERS0_RKT_, symObjAddr: 0x1555C, symBinAddr: 0x100015DD8, symSize: 0x84 }
  - { offsetInCU: 0x2E66E, offset: 0x2E66E, size: 0x8, addend: 0x0, symName: __ZN7testing15AssertionResultlsIiEERS0_RKT_, symObjAddr: 0x155E0, symBinAddr: 0x100015E5C, symSize: 0x84 }
  - { offsetInCU: 0x2E6C4, offset: 0x2E6C4, size: 0x8, addend: 0x0, symName: __ZN7testing15AssertionResultlsIA30_cEERS0_RKT_, symObjAddr: 0x15664, symBinAddr: 0x100015EE0, symSize: 0x84 }
  - { offsetInCU: 0x2E71A, offset: 0x2E71A, size: 0x8, addend: 0x0, symName: __ZN7testing15AssertionResultlsIA2_cEERS0_RKT_, symObjAddr: 0x156E8, symBinAddr: 0x100015F64, symSize: 0x84 }
  - { offsetInCU: 0x2E75D, offset: 0x2E75D, size: 0x8, addend: 0x0, symName: __ZNSt3__14pairIiN7testing15AssertionResultEEC1B8ue170006IiS2_LPv0EEEOT_OT0_, symObjAddr: 0x1576C, symBinAddr: 0x100015FE8, symSize: 0x3C }
  - { offsetInCU: 0x2E7BB, offset: 0x2E7BB, size: 0x8, addend: 0x0, symName: __ZNSt3__14pairIiN7testing15AssertionResultEEC2B8ue170006IiS2_LPv0EEEOT_OT0_, symObjAddr: 0x157A8, symBinAddr: 0x100016024, symSize: 0x48 }
  - { offsetInCU: 0x2E819, offset: 0x2E819, size: 0x8, addend: 0x0, symName: __ZNSt3__14pairIiN7testing15AssertionResultEEC1B8ue170006IiRS2_LPv0EEEOT_OT0_, symObjAddr: 0x157F0, symBinAddr: 0x10001606C, symSize: 0x3C }
  - { offsetInCU: 0x2E877, offset: 0x2E877, size: 0x8, addend: 0x0, symName: __ZNSt3__14pairIiN7testing15AssertionResultEEC2B8ue170006IiRS2_LPv0EEEOT_OT0_, symObjAddr: 0x1582C, symBinAddr: 0x1000160A8, symSize: 0x48 }
  - { offsetInCU: 0x2E8D5, offset: 0x2E8D5, size: 0x8, addend: 0x0, symName: __ZNSt3__14pairIiN7testing15AssertionResultEEC1B8ue170006IRiS2_LPv0EEEOT_OT0_, symObjAddr: 0x15874, symBinAddr: 0x1000160F0, symSize: 0x3C }
  - { offsetInCU: 0x2E933, offset: 0x2E933, size: 0x8, addend: 0x0, symName: __ZNSt3__14pairIiN7testing15AssertionResultEEC2B8ue170006IRiS2_LPv0EEEOT_OT0_, symObjAddr: 0x158B0, symBinAddr: 0x10001612C, symSize: 0x48 }
  - { offsetInCU: 0x2E991, offset: 0x2E991, size: 0x8, addend: 0x0, symName: __ZN7testing7MessagelsIA38_cEERS0_RKT_, symObjAddr: 0x158F8, symBinAddr: 0x100016174, symSize: 0x3C }
  - { offsetInCU: 0x2E9D5, offset: 0x2E9D5, size: 0x8, addend: 0x0, symName: __ZN7testing7MessagelsIA44_cEERS0_RKT_, symObjAddr: 0x15934, symBinAddr: 0x1000161B0, symSize: 0x3C }
  - { offsetInCU: 0x2EA19, offset: 0x2EA19, size: 0x8, addend: 0x0, symName: __ZN7testing7MessagelsIiEERS0_RKT_, symObjAddr: 0x15970, symBinAddr: 0x1000161EC, symSize: 0x40 }
  - { offsetInCU: 0x2EA5D, offset: 0x2EA5D, size: 0x8, addend: 0x0, symName: __ZN7testing7MessagelsIA30_cEERS0_RKT_, symObjAddr: 0x159B0, symBinAddr: 0x10001622C, symSize: 0x3C }
  - { offsetInCU: 0x2EAA1, offset: 0x2EAA1, size: 0x8, addend: 0x0, symName: __ZN7testing7MessagelsIA2_cEERS0_RKT_, symObjAddr: 0x159EC, symBinAddr: 0x100016268, symSize: 0x3C }
  - { offsetInCU: 0x2EAE5, offset: 0x2EAE5, size: 0x8, addend: 0x0, symName: __ZNSt3__14pairIiN7testing15AssertionResultEED2Ev, symObjAddr: 0x15A28, symBinAddr: 0x1000162A4, symSize: 0x30 }
  - { offsetInCU: 0x2EB11, offset: 0x2EB11, size: 0x8, addend: 0x0, symName: __ZN7testing8internal19FormatForComparisonIA6_cNSt3__112basic_stringIcNS3_11char_traitsIcEENS3_9allocatorIcEEEEE6FormatEPKc, symObjAddr: 0x15CA4, symBinAddr: 0x100016520, symSize: 0x2C }
  - { offsetInCU: 0x2EB35, offset: 0x2EB35, size: 0x8, addend: 0x0, symName: __ZN7testing8internal19FormatForComparisonIPKcNSt3__112basic_stringIcNS4_11char_traitsIcEENS4_9allocatorIcEEEEE6FormatES3_, symObjAddr: 0x15CD0, symBinAddr: 0x10001654C, symSize: 0x30 }
  - { offsetInCU: 0x2EB59, offset: 0x2EB59, size: 0x8, addend: 0x0, symName: __ZNSt3__118basic_stringstreamIcNS_11char_traitsIcEENS_9allocatorIcEEEC1B8ue170006Ev, symObjAddr: 0x15DCC, symBinAddr: 0x100016648, symSize: 0x104 }
  - { offsetInCU: 0x2EB88, offset: 0x2EB88, size: 0x8, addend: 0x0, symName: __ZN7testing8internal21UniversalTersePrinterIPKcE5PrintES3_PNSt3__113basic_ostreamIcNS5_11char_traitsIcEEEE, symObjAddr: 0x15ED0, symBinAddr: 0x10001674C, symSize: 0x94 }
  - { offsetInCU: 0x2EBBB, offset: 0x2EBBB, size: 0x8, addend: 0x0, symName: __ZNKSt3__118basic_stringstreamIcNS_11char_traitsIcEENS_9allocatorIcEEE3strB8ue170006Ev, symObjAddr: 0x15F64, symBinAddr: 0x1000167E0, symSize: 0x30 }
  - { offsetInCU: 0x2EBE6, offset: 0x2EBE6, size: 0x8, addend: 0x0, symName: __ZNSt3__118basic_stringstreamIcNS_11char_traitsIcEENS_9allocatorIcEEED1Ev, symObjAddr: 0x15F94, symBinAddr: 0x100016810, symSize: 0x40 }
  - { offsetInCU: 0x2EC13, offset: 0x2EC13, size: 0x8, addend: 0x0, symName: __ZNSt3__19basic_iosIcNS_11char_traitsIcEEEC2B8ue170006Ev, symObjAddr: 0x15FD4, symBinAddr: 0x100016850, symSize: 0x44 }
  - { offsetInCU: 0x2EC3D, offset: 0x2EC3D, size: 0x8, addend: 0x0, symName: __ZNSt3__114basic_iostreamIcNS_11char_traitsIcEEEC2B8ue170006EPNS_15basic_streambufIcS2_EE, symObjAddr: 0x16018, symBinAddr: 0x100016894, symSize: 0xAC }
  - { offsetInCU: 0x2EC83, offset: 0x2EC83, size: 0x8, addend: 0x0, symName: __ZNSt3__115basic_stringbufIcNS_11char_traitsIcEENS_9allocatorIcEEEC1B8ue170006Ej, symObjAddr: 0x160C4, symBinAddr: 0x100016940, symSize: 0x34 }
  - { offsetInCU: 0x2ECBC, offset: 0x2ECBC, size: 0x8, addend: 0x0, symName: __ZNSt3__18ios_baseC2B8ue170006Ev, symObjAddr: 0x160F8, symBinAddr: 0x100016974, symSize: 0x24 }
  - { offsetInCU: 0x2ECE6, offset: 0x2ECE6, size: 0x8, addend: 0x0, symName: __ZNSt3__113basic_istreamIcNS_11char_traitsIcEEEC2B8ue170006EPNS_15basic_streambufIcS2_EE, symObjAddr: 0x1611C, symBinAddr: 0x100016998, symSize: 0x64 }
  - { offsetInCU: 0x2ED2B, offset: 0x2ED2B, size: 0x8, addend: 0x0, symName: __ZNSt3__113basic_ostreamIcNS_11char_traitsIcEEEC2B8ue170006Ev, symObjAddr: 0x16180, symBinAddr: 0x1000169FC, symSize: 0x34 }
  - { offsetInCU: 0x2ED62, offset: 0x2ED62, size: 0x8, addend: 0x0, symName: __ZNSt3__19basic_iosIcNS_11char_traitsIcEEE4initB8ue170006EPNS_15basic_streambufIcS2_EE, symObjAddr: 0x161B4, symBinAddr: 0x100016A30, symSize: 0x44 }
  - { offsetInCU: 0x2ED99, offset: 0x2ED99, size: 0x8, addend: 0x0, symName: __ZNSt3__115basic_stringbufIcNS_11char_traitsIcEENS_9allocatorIcEEEC2B8ue170006Ej, symObjAddr: 0x161F8, symBinAddr: 0x100016A74, symSize: 0x60 }
  - { offsetInCU: 0x2EDD2, offset: 0x2EDD2, size: 0x8, addend: 0x0, symName: __ZN7testing8internal16UniversalPrinterINSt3__112basic_stringIcNS2_11char_traitsIcEENS2_9allocatorIcEEEEE5PrintERKS8_PNS2_13basic_ostreamIcS5_EE, symObjAddr: 0x16284, symBinAddr: 0x100016B00, symSize: 0x2C }
  - { offsetInCU: 0x2EE05, offset: 0x2EE05, size: 0x8, addend: 0x0, symName: __ZNSt3__118basic_stringstreamIcNS_11char_traitsIcEENS_9allocatorIcEEED2Ev, symObjAddr: 0x162DC, symBinAddr: 0x100016B58, symSize: 0x6C }
  - { offsetInCU: 0x2EE3F, offset: 0x2EE3F, size: 0x8, addend: 0x0, symName: __ZThn16_NSt3__118basic_stringstreamIcNS_11char_traitsIcEENS_9allocatorIcEEED1Ev, symObjAddr: 0x16348, symBinAddr: 0x100016BC4, symSize: 0x1C }
  - { offsetInCU: 0x2EE56, offset: 0x2EE56, size: 0x8, addend: 0x0, symName: __ZTv0_n24_NSt3__118basic_stringstreamIcNS_11char_traitsIcEENS_9allocatorIcEEED1Ev, symObjAddr: 0x16364, symBinAddr: 0x100016BE0, symSize: 0x28 }
  - { offsetInCU: 0x2EE72, offset: 0x2EE72, size: 0x8, addend: 0x0, symName: __ZNSt3__115basic_stringbufIcNS_11char_traitsIcEENS_9allocatorIcEEED1Ev, symObjAddr: 0x1638C, symBinAddr: 0x100016C08, symSize: 0x2C }
  - { offsetInCU: 0x2EE9F, offset: 0x2EE9F, size: 0x8, addend: 0x0, symName: __ZNSt3__115basic_stringbufIcNS_11char_traitsIcEENS_9allocatorIcEEED2Ev, symObjAddr: 0x163B8, symBinAddr: 0x100016C34, symSize: 0x48 }
  - { offsetInCU: 0x2EECC, offset: 0x2EECC, size: 0x8, addend: 0x0, symName: __ZN7testing8internal19FormatForComparisonINSt3__112basic_stringIcNS2_11char_traitsIcEENS2_9allocatorIcEEEEA6_cE6FormatERKS8_, symObjAddr: 0x16400, symBinAddr: 0x100016C7C, symSize: 0x2C }
  - { offsetInCU: 0x2EEF0, offset: 0x2EEF0, size: 0x8, addend: 0x0, symName: __ZN7testing8internal21UniversalTersePrinterINSt3__112basic_stringIcNS2_11char_traitsIcEENS2_9allocatorIcEEEEE5PrintERKS8_PNS2_13basic_ostreamIcS5_EE, symObjAddr: 0x164F4, symBinAddr: 0x100016D70, symSize: 0x2C }
  - { offsetInCU: 0x2EF23, offset: 0x2EF23, size: 0x8, addend: 0x0, symName: __ZNSt3__13setIiNS_4lessIiEENS_9allocatorIiEEEC2B8ue170006Ev, symObjAddr: 0x16520, symBinAddr: 0x100016D9C, symSize: 0x30 }
  - { offsetInCU: 0x2EF4D, offset: 0x2EF4D, size: 0x8, addend: 0x0, symName: __ZNSt3__16__treeIiNS_4lessIiEENS_9allocatorIiEEEC1ERKS2_, symObjAddr: 0x16550, symBinAddr: 0x100016DCC, symSize: 0x34 }
  - { offsetInCU: 0x2EF88, offset: 0x2EF88, size: 0x8, addend: 0x0, symName: __ZNSt3__16__treeIiNS_4lessIiEENS_9allocatorIiEEEC2ERKS2_, symObjAddr: 0x16584, symBinAddr: 0x100016E00, symSize: 0x7C }
  - { offsetInCU: 0x2EFC3, offset: 0x2EFC3, size: 0x8, addend: 0x0, symName: __ZNSt3__117__compressed_pairINS_15__tree_end_nodeIPNS_16__tree_node_baseIPvEEEENS_9allocatorINS_11__tree_nodeIiS3_EEEEEC1B8ue170006ILb1EvEEv, symObjAddr: 0x16600, symBinAddr: 0x100016E7C, symSize: 0x2C }
  - { offsetInCU: 0x2EFF8, offset: 0x2EFF8, size: 0x8, addend: 0x0, symName: __ZNSt3__117__compressed_pairImNS_4lessIiEEEC1B8ue170006IiRKS2_EEOT_OT0_, symObjAddr: 0x1662C, symBinAddr: 0x100016EA8, symSize: 0x3C }
  - { offsetInCU: 0x2F050, offset: 0x2F050, size: 0x8, addend: 0x0, symName: __ZNSt3__16__treeIiNS_4lessIiEENS_9allocatorIiEEE10__end_nodeB8ue170006Ev, symObjAddr: 0x16668, symBinAddr: 0x100016EE4, symSize: 0x2C }
  - { offsetInCU: 0x2F076, offset: 0x2F076, size: 0x8, addend: 0x0, symName: __ZNSt3__16__treeIiNS_4lessIiEENS_9allocatorIiEEE12__begin_nodeB8ue170006Ev, symObjAddr: 0x16694, symBinAddr: 0x100016F10, symSize: 0x14 }
  - { offsetInCU: 0x2F09C, offset: 0x2F09C, size: 0x8, addend: 0x0, symName: __ZNSt3__117__compressed_pairINS_15__tree_end_nodeIPNS_16__tree_node_baseIPvEEEENS_9allocatorINS_11__tree_nodeIiS3_EEEEEC2B8ue170006ILb1EvEEv, symObjAddr: 0x166A8, symBinAddr: 0x100016F24, symSize: 0x34 }
  - { offsetInCU: 0x2F0D1, offset: 0x2F0D1, size: 0x8, addend: 0x0, symName: __ZNSt3__122__compressed_pair_elemINS_9allocatorINS_11__tree_nodeIiPvEEEELi1ELb1EEC2B8ue170006ENS_16__value_init_tagE, symObjAddr: 0x166DC, symBinAddr: 0x100016F58, symSize: 0x2C }
  - { offsetInCU: 0x2F106, offset: 0x2F106, size: 0x8, addend: 0x0, symName: __ZNSt3__19allocatorINS_11__tree_nodeIiPvEEEC2B8ue170006Ev, symObjAddr: 0x16708, symBinAddr: 0x100016F84, symSize: 0x2C }
  - { offsetInCU: 0x2F130, offset: 0x2F130, size: 0x8, addend: 0x0, symName: __ZNSt3__116__non_trivial_ifILb1ENS_9allocatorINS_11__tree_nodeIiPvEEEEEC2B8ue170006Ev, symObjAddr: 0x16734, symBinAddr: 0x100016FB0, symSize: 0x14 }
  - { offsetInCU: 0x2F15A, offset: 0x2F15A, size: 0x8, addend: 0x0, symName: __ZNSt3__117__compressed_pairImNS_4lessIiEEEC2B8ue170006IiRKS2_EEOT_OT0_, symObjAddr: 0x16748, symBinAddr: 0x100016FC4, symSize: 0x44 }
  - { offsetInCU: 0x2F1B2, offset: 0x2F1B2, size: 0x8, addend: 0x0, symName: __ZNSt3__122__compressed_pair_elemINS_4lessIiEELi1ELb1EEC2B8ue170006IRKS2_vEEOT_, symObjAddr: 0x1678C, symBinAddr: 0x100017008, symSize: 0x18 }
  - { offsetInCU: 0x2F1F4, offset: 0x2F1F4, size: 0x8, addend: 0x0, symName: __ZNSt3__117__compressed_pairINS_15__tree_end_nodeIPNS_16__tree_node_baseIPvEEEENS_9allocatorINS_11__tree_nodeIiS3_EEEEE5firstB8ue170006Ev, symObjAddr: 0x167A4, symBinAddr: 0x100017020, symSize: 0x24 }
  - { offsetInCU: 0x2F21A, offset: 0x2F21A, size: 0x8, addend: 0x0, symName: __ZNSt3__13setIiNS_4lessIiEENS_9allocatorIiEEED2B8ue170006Ev, symObjAddr: 0x167C8, symBinAddr: 0x100017044, symSize: 0x2C }
  - { offsetInCU: 0x2F244, offset: 0x2F244, size: 0x8, addend: 0x0, symName: __ZNSt3__16__treeIiNS_4lessIiEENS_9allocatorIiEEED1Ev, symObjAddr: 0x167F4, symBinAddr: 0x100017070, symSize: 0x2C }
  - { offsetInCU: 0x2F270, offset: 0x2F270, size: 0x8, addend: 0x0, symName: __ZNSt3__16__treeIiNS_4lessIiEENS_9allocatorIiEEED2Ev, symObjAddr: 0x16820, symBinAddr: 0x10001709C, symSize: 0x38 }
  - { offsetInCU: 0x2F29C, offset: 0x2F29C, size: 0x8, addend: 0x0, symName: __ZNSt3__16__treeIiNS_4lessIiEENS_9allocatorIiEEE7destroyEPNS_11__tree_nodeIiPvEE, symObjAddr: 0x16858, symBinAddr: 0x1000170D4, symSize: 0xAC }
  - { offsetInCU: 0x2F2E8, offset: 0x2F2E8, size: 0x8, addend: 0x0, symName: __ZNKSt3__16__treeIiNS_4lessIiEENS_9allocatorIiEEE6__rootB8ue170006Ev, symObjAddr: 0x16904, symBinAddr: 0x100017180, symSize: 0x28 }
  - { offsetInCU: 0x2F30E, offset: 0x2F30E, size: 0x8, addend: 0x0, symName: __ZNSt3__16__treeIiNS_4lessIiEENS_9allocatorIiEEE12__node_allocB8ue170006Ev, symObjAddr: 0x1692C, symBinAddr: 0x1000171A8, symSize: 0x28 }
  - { offsetInCU: 0x2F334, offset: 0x2F334, size: 0x8, addend: 0x0, symName: __ZNSt3__116allocator_traitsINS_9allocatorINS_11__tree_nodeIiPvEEEEE7destroyB8ue170006IivvEEvRS5_PT_, symObjAddr: 0x16954, symBinAddr: 0x1000171D0, symSize: 0x14 }
  - { offsetInCU: 0x2F36E, offset: 0x2F36E, size: 0x8, addend: 0x0, symName: __ZNSt3__122__tree_key_value_typesIiE9__get_ptrB8ue170006ERi, symObjAddr: 0x16968, symBinAddr: 0x1000171E4, symSize: 0x14 }
  - { offsetInCU: 0x2F392, offset: 0x2F392, size: 0x8, addend: 0x0, symName: __ZNSt3__116allocator_traitsINS_9allocatorINS_11__tree_nodeIiPvEEEEE10deallocateB8ue170006ERS5_PS4_m, symObjAddr: 0x1697C, symBinAddr: 0x1000171F8, symSize: 0x34 }
  - { offsetInCU: 0x2F3D4, offset: 0x2F3D4, size: 0x8, addend: 0x0, symName: __ZNSt3__117__compressed_pairINS_15__tree_end_nodeIPNS_16__tree_node_baseIPvEEEENS_9allocatorINS_11__tree_nodeIiS3_EEEEE6secondB8ue170006Ev, symObjAddr: 0x169B0, symBinAddr: 0x10001722C, symSize: 0x24 }
  - { offsetInCU: 0x2F3FA, offset: 0x2F3FA, size: 0x8, addend: 0x0, symName: __ZNSt3__122__compressed_pair_elemINS_9allocatorINS_11__tree_nodeIiPvEEEELi1ELb1EE5__getB8ue170006Ev, symObjAddr: 0x169D4, symBinAddr: 0x100017250, symSize: 0x14 }
  - { offsetInCU: 0x2F420, offset: 0x2F420, size: 0x8, addend: 0x0, symName: __ZNSt3__19allocatorINS_11__tree_nodeIiPvEEE10deallocateB8ue170006EPS3_m, symObjAddr: 0x169E8, symBinAddr: 0x100017264, symSize: 0x40 }
  - { offsetInCU: 0x2F462, offset: 0x2F462, size: 0x8, addend: 0x0, symName: __ZNKSt3__16__treeIiNS_4lessIiEENS_9allocatorIiEEE10__end_nodeB8ue170006Ev, symObjAddr: 0x16A28, symBinAddr: 0x1000172A4, symSize: 0x2C }
  - { offsetInCU: 0x2F488, offset: 0x2F488, size: 0x8, addend: 0x0, symName: __ZNKSt3__117__compressed_pairINS_15__tree_end_nodeIPNS_16__tree_node_baseIPvEEEENS_9allocatorINS_11__tree_nodeIiS3_EEEEE5firstB8ue170006Ev, symObjAddr: 0x16A54, symBinAddr: 0x1000172D0, symSize: 0x24 }
  - { offsetInCU: 0x2F4AE, offset: 0x2F4AE, size: 0x8, addend: 0x0, symName: __ZN7AVLNodeIiiEC1ERKiS2_PS0_, symObjAddr: 0x16A78, symBinAddr: 0x1000172F4, symSize: 0x44 }
  - { offsetInCU: 0x2F503, offset: 0x2F503, size: 0x8, addend: 0x0, symName: __ZNK16BinarySearchTreeIiiE10findHeightEP4NodeIiiE, symObjAddr: 0x16ABC, symBinAddr: 0x100017338, symSize: 0xB0 }
  - { offsetInCU: 0x2F539, offset: 0x2F539, size: 0x8, addend: 0x0, symName: __ZN7AVLTreeIiiE9insertFixEP7AVLNodeIiiES3_, symObjAddr: 0x16B6C, symBinAddr: 0x1000173E8, symSize: 0x10C }
  - { offsetInCU: 0x2F59B, offset: 0x2F59B, size: 0x8, addend: 0x0, symName: __ZN7AVLNodeIiiEC2ERKiS2_PS0_, symObjAddr: 0x16C78, symBinAddr: 0x1000174F4, symSize: 0x64 }
  - { offsetInCU: 0x2F5F0, offset: 0x2F5F0, size: 0x8, addend: 0x0, symName: __ZN7AVLNodeIiiED1Ev, symObjAddr: 0x16CDC, symBinAddr: 0x100017558, symSize: 0x2C }
  - { offsetInCU: 0x2F61B, offset: 0x2F61B, size: 0x8, addend: 0x0, symName: __ZN7AVLNodeIiiED0Ev, symObjAddr: 0x16D08, symBinAddr: 0x100017584, symSize: 0x30 }
  - { offsetInCU: 0x2F646, offset: 0x2F646, size: 0x8, addend: 0x0, symName: __ZNK7AVLNodeIiiE9getParentEv, symObjAddr: 0x16D38, symBinAddr: 0x1000175B4, symSize: 0x18 }
  - { offsetInCU: 0x2F66D, offset: 0x2F66D, size: 0x8, addend: 0x0, symName: __ZNK7AVLNodeIiiE7getLeftEv, symObjAddr: 0x16D50, symBinAddr: 0x1000175CC, symSize: 0x18 }
  - { offsetInCU: 0x2F694, offset: 0x2F694, size: 0x8, addend: 0x0, symName: __ZNK7AVLNodeIiiE8getRightEv, symObjAddr: 0x16D68, symBinAddr: 0x1000175E4, symSize: 0x18 }
  - { offsetInCU: 0x2F6BB, offset: 0x2F6BB, size: 0x8, addend: 0x0, symName: __ZN7AVLNodeIiiED2Ev, symObjAddr: 0x16D80, symBinAddr: 0x1000175FC, symSize: 0x2C }
  - { offsetInCU: 0x2F6E6, offset: 0x2F6E6, size: 0x8, addend: 0x0, symName: __ZNK16BinarySearchTreeIiiE12checkBalanceEP4NodeIiiE, symObjAddr: 0x16DAC, symBinAddr: 0x100017628, symSize: 0x140 }
  - { offsetInCU: 0x2F73A, offset: 0x2F73A, size: 0x8, addend: 0x0, symName: __ZN7AVLTreeIiiE16performRotationsEP7AVLNodeIiiES3_S3_, symObjAddr: 0x16EEC, symBinAddr: 0x100017768, symSize: 0x7A8 }
  - { offsetInCU: 0x2F79B, offset: 0x2F79B, size: 0x8, addend: 0x0, symName: __ZN7AVLTreeIiiE11resetHeightEP7AVLNodeIiiE, symObjAddr: 0x17694, symBinAddr: 0x100017F10, symSize: 0x98 }
  - { offsetInCU: 0x2F7E0, offset: 0x2F7E0, size: 0x8, addend: 0x0, symName: __ZN7AVLTreeIiiE7findZigEP7AVLNodeIiiES3_S3_, symObjAddr: 0x1772C, symBinAddr: 0x100017FA8, symSize: 0x184 }
  - { offsetInCU: 0x2F832, offset: 0x2F832, size: 0x8, addend: 0x0, symName: __ZNSt3__16__treeIiNS_4lessIiEENS_9allocatorIiEEE15__insert_uniqueB8ue170006ERKi, symObjAddr: 0x178B0, symBinAddr: 0x10001812C, symSize: 0x50 }
  - { offsetInCU: 0x2F867, offset: 0x2F867, size: 0x8, addend: 0x0, symName: __ZNSt3__14pairINS_21__tree_const_iteratorIiPNS_11__tree_nodeIiPvEElEEbEC1B8ue170006INS_15__tree_iteratorIiS5_lEEbLS3_0EEEONS0_IT_T0_EE, symObjAddr: 0x17900, symBinAddr: 0x10001817C, symSize: 0x34 }
  - { offsetInCU: 0x2F8B8, offset: 0x2F8B8, size: 0x8, addend: 0x0, symName: __ZNSt3__16__treeIiNS_4lessIiEENS_9allocatorIiEEE25__emplace_unique_key_argsIiJRKiEEENS_4pairINS_15__tree_iteratorIiPNS_11__tree_nodeIiPvEElEEbEERKT_DpOT0_, symObjAddr: 0x17934, symBinAddr: 0x1000181B0, symSize: 0xF0 }
  - { offsetInCU: 0x2F964, offset: 0x2F964, size: 0x8, addend: 0x0, symName: __ZNSt3__122__tree_key_value_typesIiE9__get_keyB8ue170006ERKi, symObjAddr: 0x17A24, symBinAddr: 0x1000182A0, symSize: 0x14 }
  - { offsetInCU: 0x2F988, offset: 0x2F988, size: 0x8, addend: 0x0, symName: __ZNSt3__16__treeIiNS_4lessIiEENS_9allocatorIiEEE12__find_equalIiEERPNS_16__tree_node_baseIPvEERPNS_15__tree_end_nodeISA_EERKT_, symObjAddr: 0x17A38, symBinAddr: 0x1000182B4, symSize: 0x184 }
  - { offsetInCU: 0x2F9F5, offset: 0x2F9F5, size: 0x8, addend: 0x0, symName: __ZNSt3__16__treeIiNS_4lessIiEENS_9allocatorIiEEE16__construct_nodeIJRKiEEENS_10unique_ptrINS_11__tree_nodeIiPvEENS_22__tree_node_destructorINS3_ISC_EEEEEEDpOT_, symObjAddr: 0x17BBC, symBinAddr: 0x100018438, symSize: 0x108 }
  - { offsetInCU: 0x2FA56, offset: 0x2FA56, size: 0x8, addend: 0x0, symName: __ZNSt3__16__treeIiNS_4lessIiEENS_9allocatorIiEEE16__insert_node_atEPNS_15__tree_end_nodeIPNS_16__tree_node_baseIPvEEEERSA_SA_, symObjAddr: 0x17CC4, symBinAddr: 0x100018540, symSize: 0xCC }
  - { offsetInCU: 0x2FAAB, offset: 0x2FAAB, size: 0x8, addend: 0x0, symName: __ZNKSt3__110unique_ptrINS_11__tree_nodeIiPvEENS_22__tree_node_destructorINS_9allocatorIS3_EEEEE3getB8ue170006Ev, symObjAddr: 0x17D90, symBinAddr: 0x10001860C, symSize: 0x28 }
  - { offsetInCU: 0x2FAD1, offset: 0x2FAD1, size: 0x8, addend: 0x0, symName: __ZNSt3__110unique_ptrINS_11__tree_nodeIiPvEENS_22__tree_node_destructorINS_9allocatorIS3_EEEEE7releaseB8ue170006Ev, symObjAddr: 0x17DB8, symBinAddr: 0x100018634, symSize: 0x44 }
  - { offsetInCU: 0x2FB06, offset: 0x2FB06, size: 0x8, addend: 0x0, symName: __ZNSt3__110unique_ptrINS_11__tree_nodeIiPvEENS_22__tree_node_destructorINS_9allocatorIS3_EEEEED1B8ue170006Ev, symObjAddr: 0x17DFC, symBinAddr: 0x100018678, symSize: 0x2C }
  - { offsetInCU: 0x2FB30, offset: 0x2FB30, size: 0x8, addend: 0x0, symName: __ZNSt3__115__tree_iteratorIiPNS_11__tree_nodeIiPvEElEC1B8ue170006ES4_, symObjAddr: 0x17E28, symBinAddr: 0x1000186A4, symSize: 0x34 }
  - { offsetInCU: 0x2FB6F, offset: 0x2FB6F, size: 0x8, addend: 0x0, symName: __ZNSt3__14pairINS_15__tree_iteratorIiPNS_11__tree_nodeIiPvEElEEbEC1B8ue170006IS6_RbLS3_0EEEOT_OT0_, symObjAddr: 0x17E5C, symBinAddr: 0x1000186D8, symSize: 0x3C }
  - { offsetInCU: 0x2FBCD, offset: 0x2FBCD, size: 0x8, addend: 0x0, symName: __ZNKSt3__16__treeIiNS_4lessIiEENS_9allocatorIiEEE10__root_ptrB8ue170006Ev, symObjAddr: 0x17E98, symBinAddr: 0x100018714, symSize: 0x24 }
  - { offsetInCU: 0x2FBF3, offset: 0x2FBF3, size: 0x8, addend: 0x0, symName: __ZNSt3__16__treeIiNS_4lessIiEENS_9allocatorIiEEE10value_compB8ue170006Ev, symObjAddr: 0x17EBC, symBinAddr: 0x100018738, symSize: 0x28 }
  - { offsetInCU: 0x2FC19, offset: 0x2FC19, size: 0x8, addend: 0x0, symName: __ZNSt3__117__compressed_pairImNS_4lessIiEEE6secondB8ue170006Ev, symObjAddr: 0x17EE4, symBinAddr: 0x100018760, symSize: 0x24 }
  - { offsetInCU: 0x2FC3F, offset: 0x2FC3F, size: 0x8, addend: 0x0, symName: __ZNSt3__122__compressed_pair_elemINS_4lessIiEELi1ELb1EE5__getB8ue170006Ev, symObjAddr: 0x17F08, symBinAddr: 0x100018784, symSize: 0x14 }
  - { offsetInCU: 0x2FC65, offset: 0x2FC65, size: 0x8, addend: 0x0, symName: __ZNSt3__116allocator_traitsINS_9allocatorINS_11__tree_nodeIiPvEEEEE8allocateB8ue170006ERS5_m, symObjAddr: 0x17F1C, symBinAddr: 0x100018798, symSize: 0x2C }
  - { offsetInCU: 0x2FC98, offset: 0x2FC98, size: 0x8, addend: 0x0, symName: __ZNSt3__122__tree_node_destructorINS_9allocatorINS_11__tree_nodeIiPvEEEEEC1B8ue170006ERS5_b, symObjAddr: 0x17F48, symBinAddr: 0x1000187C4, symSize: 0x48 }
  - { offsetInCU: 0x2FCE6, offset: 0x2FCE6, size: 0x8, addend: 0x0, symName: __ZNSt3__110unique_ptrINS_11__tree_nodeIiPvEENS_22__tree_node_destructorINS_9allocatorIS3_EEEEEC1B8ue170006ILb1EvEEPS3_NS_16__dependent_typeINS_27__unique_ptr_deleter_sfinaeIS7_EEXT_EE20__good_rval_ref_typeE, symObjAddr: 0x17F90, symBinAddr: 0x10001880C, symSize: 0x3C }
  - { offsetInCU: 0x2FD37, offset: 0x2FD37, size: 0x8, addend: 0x0, symName: __ZNSt3__116allocator_traitsINS_9allocatorINS_11__tree_nodeIiPvEEEEE9constructB8ue170006IiJRKiEvEEvRS5_PT_DpOT0_, symObjAddr: 0x17FCC, symBinAddr: 0x100018848, symSize: 0x34 }
  - { offsetInCU: 0x2FD8E, offset: 0x2FD8E, size: 0x8, addend: 0x0, symName: __ZNKSt3__110unique_ptrINS_11__tree_nodeIiPvEENS_22__tree_node_destructorINS_9allocatorIS3_EEEEEptB8ue170006Ev, symObjAddr: 0x18000, symBinAddr: 0x10001887C, symSize: 0x28 }
  - { offsetInCU: 0x2FDB4, offset: 0x2FDB4, size: 0x8, addend: 0x0, symName: __ZNSt3__110unique_ptrINS_11__tree_nodeIiPvEENS_22__tree_node_destructorINS_9allocatorIS3_EEEEE11get_deleterB8ue170006Ev, symObjAddr: 0x18028, symBinAddr: 0x1000188A4, symSize: 0x24 }
  - { offsetInCU: 0x2FDDA, offset: 0x2FDDA, size: 0x8, addend: 0x0, symName: __ZNSt3__19allocatorINS_11__tree_nodeIiPvEEE8allocateB8ue170006Em, symObjAddr: 0x1804C, symBinAddr: 0x1000188C8, symSize: 0x58 }
  - { offsetInCU: 0x2FE19, offset: 0x2FE19, size: 0x8, addend: 0x0, symName: __ZNSt3__116allocator_traitsINS_9allocatorINS_11__tree_nodeIiPvEEEEE8max_sizeB8ue170006IS5_vEEmRKS5_, symObjAddr: 0x180A4, symBinAddr: 0x100018920, symSize: 0x24 }
  - { offsetInCU: 0x2FE47, offset: 0x2FE47, size: 0x8, addend: 0x0, symName: __ZNKSt3__19allocatorINS_11__tree_nodeIiPvEEE8max_sizeB8ue170006Ev, symObjAddr: 0x180C8, symBinAddr: 0x100018944, symSize: 0x14 }
  - { offsetInCU: 0x2FE6D, offset: 0x2FE6D, size: 0x8, addend: 0x0, symName: __ZNSt3__122__tree_node_destructorINS_9allocatorINS_11__tree_nodeIiPvEEEEEC2B8ue170006ERS5_b, symObjAddr: 0x180DC, symBinAddr: 0x100018958, symSize: 0x38 }
  - { offsetInCU: 0x2FEB5, offset: 0x2FEB5, size: 0x8, addend: 0x0, symName: __ZNSt3__110unique_ptrINS_11__tree_nodeIiPvEENS_22__tree_node_destructorINS_9allocatorIS3_EEEEEC2B8ue170006ILb1EvEEPS3_NS_16__dependent_typeINS_27__unique_ptr_deleter_sfinaeIS7_EEXT_EE20__good_rval_ref_typeE, symObjAddr: 0x18114, symBinAddr: 0x100018990, symSize: 0x48 }
  - { offsetInCU: 0x2FF06, offset: 0x2FF06, size: 0x8, addend: 0x0, symName: __ZNSt3__117__compressed_pairIPNS_11__tree_nodeIiPvEENS_22__tree_node_destructorINS_9allocatorIS3_EEEEEC1B8ue170006IRS4_S8_EEOT_OT0_, symObjAddr: 0x1815C, symBinAddr: 0x1000189D8, symSize: 0x3C }
  - { offsetInCU: 0x2FF5E, offset: 0x2FF5E, size: 0x8, addend: 0x0, symName: __ZNSt3__117__compressed_pairIPNS_11__tree_nodeIiPvEENS_22__tree_node_destructorINS_9allocatorIS3_EEEEEC2B8ue170006IRS4_S8_EEOT_OT0_, symObjAddr: 0x18198, symBinAddr: 0x100018A14, symSize: 0x48 }
  - { offsetInCU: 0x2FFB6, offset: 0x2FFB6, size: 0x8, addend: 0x0, symName: __ZNSt3__122__compressed_pair_elemIPNS_11__tree_nodeIiPvEELi0ELb0EEC2B8ue170006IRS4_vEEOT_, symObjAddr: 0x181E0, symBinAddr: 0x100018A5C, symSize: 0x24 }
  - { offsetInCU: 0x2FFF8, offset: 0x2FFF8, size: 0x8, addend: 0x0, symName: __ZNSt3__122__compressed_pair_elemINS_22__tree_node_destructorINS_9allocatorINS_11__tree_nodeIiPvEEEEEELi1ELb0EEC2B8ue170006IS7_vEEOT_, symObjAddr: 0x18204, symBinAddr: 0x100018A80, symSize: 0x24 }
  - { offsetInCU: 0x3003A, offset: 0x3003A, size: 0x8, addend: 0x0, symName: __ZNSt3__19allocatorINS_11__tree_nodeIiPvEEE9constructB8ue170006IiJRKiEEEvPT_DpOT0_, symObjAddr: 0x18228, symBinAddr: 0x100018AA4, symSize: 0x28 }
  - { offsetInCU: 0x30090, offset: 0x30090, size: 0x8, addend: 0x0, symName: __ZNKSt3__117__compressed_pairIPNS_11__tree_nodeIiPvEENS_22__tree_node_destructorINS_9allocatorIS3_EEEEE5firstB8ue170006Ev, symObjAddr: 0x18250, symBinAddr: 0x100018ACC, symSize: 0x24 }
  - { offsetInCU: 0x300B6, offset: 0x300B6, size: 0x8, addend: 0x0, symName: __ZNKSt3__122__compressed_pair_elemIPNS_11__tree_nodeIiPvEELi0ELb0EE5__getB8ue170006Ev, symObjAddr: 0x18274, symBinAddr: 0x100018AF0, symSize: 0x14 }
  - { offsetInCU: 0x300DC, offset: 0x300DC, size: 0x8, addend: 0x0, symName: __ZNSt3__117__compressed_pairIPNS_11__tree_nodeIiPvEENS_22__tree_node_destructorINS_9allocatorIS3_EEEEE6secondB8ue170006Ev, symObjAddr: 0x18288, symBinAddr: 0x100018B04, symSize: 0x28 }
  - { offsetInCU: 0x30102, offset: 0x30102, size: 0x8, addend: 0x0, symName: __ZNSt3__122__compressed_pair_elemINS_22__tree_node_destructorINS_9allocatorINS_11__tree_nodeIiPvEEEEEELi1ELb0EE5__getB8ue170006Ev, symObjAddr: 0x182B0, symBinAddr: 0x100018B2C, symSize: 0x14 }
  - { offsetInCU: 0x30128, offset: 0x30128, size: 0x8, addend: 0x0, symName: __ZNSt3__16__treeIiNS_4lessIiEENS_9allocatorIiEEE4sizeB8ue170006Ev, symObjAddr: 0x182C4, symBinAddr: 0x100018B40, symSize: 0x28 }
  - { offsetInCU: 0x3014E, offset: 0x3014E, size: 0x8, addend: 0x0, symName: __ZNSt3__117__compressed_pairImNS_4lessIiEEE5firstB8ue170006Ev, symObjAddr: 0x182EC, symBinAddr: 0x100018B68, symSize: 0x24 }
  - { offsetInCU: 0x30174, offset: 0x30174, size: 0x8, addend: 0x0, symName: __ZNSt3__117__compressed_pairIPNS_11__tree_nodeIiPvEENS_22__tree_node_destructorINS_9allocatorIS3_EEEEE5firstB8ue170006Ev, symObjAddr: 0x18310, symBinAddr: 0x100018B8C, symSize: 0x24 }
  - { offsetInCU: 0x3019A, offset: 0x3019A, size: 0x8, addend: 0x0, symName: __ZNSt3__122__compressed_pair_elemIPNS_11__tree_nodeIiPvEELi0ELb0EE5__getB8ue170006Ev, symObjAddr: 0x18334, symBinAddr: 0x100018BB0, symSize: 0x14 }
  - { offsetInCU: 0x301C0, offset: 0x301C0, size: 0x8, addend: 0x0, symName: __ZNSt3__110unique_ptrINS_11__tree_nodeIiPvEENS_22__tree_node_destructorINS_9allocatorIS3_EEEEED2B8ue170006Ev, symObjAddr: 0x18348, symBinAddr: 0x100018BC4, symSize: 0x30 }
  - { offsetInCU: 0x301EA, offset: 0x301EA, size: 0x8, addend: 0x0, symName: __ZNSt3__110unique_ptrINS_11__tree_nodeIiPvEENS_22__tree_node_destructorINS_9allocatorIS3_EEEEE5resetB8ue170006EPS3_, symObjAddr: 0x18378, symBinAddr: 0x100018BF4, symSize: 0x78 }
  - { offsetInCU: 0x3022E, offset: 0x3022E, size: 0x8, addend: 0x0, symName: __ZNSt3__122__tree_node_destructorINS_9allocatorINS_11__tree_nodeIiPvEEEEEclB8ue170006EPS4_, symObjAddr: 0x183F0, symBinAddr: 0x100018C6C, symSize: 0x88 }
  - { offsetInCU: 0x30263, offset: 0x30263, size: 0x8, addend: 0x0, symName: __ZNSt3__115__tree_iteratorIiPNS_11__tree_nodeIiPvEElEC2B8ue170006ES4_, symObjAddr: 0x18478, symBinAddr: 0x100018CF4, symSize: 0x20 }
  - { offsetInCU: 0x3029C, offset: 0x3029C, size: 0x8, addend: 0x0, symName: __ZNSt3__14pairINS_15__tree_iteratorIiPNS_11__tree_nodeIiPvEElEEbEC2B8ue170006IS6_RbLS3_0EEEOT_OT0_, symObjAddr: 0x18498, symBinAddr: 0x100018D14, symSize: 0x38 }
  - { offsetInCU: 0x302FA, offset: 0x302FA, size: 0x8, addend: 0x0, symName: __ZNSt3__14pairINS_21__tree_const_iteratorIiPNS_11__tree_nodeIiPvEElEEbEC2B8ue170006INS_15__tree_iteratorIiS5_lEEbLS3_0EEEONS0_IT_T0_EE, symObjAddr: 0x184D0, symBinAddr: 0x100018D4C, symSize: 0x50 }
  - { offsetInCU: 0x3034B, offset: 0x3034B, size: 0x8, addend: 0x0, symName: __ZNSt3__121__tree_const_iteratorIiPNS_11__tree_nodeIiPvEElEC1B8ue170006ENS_15__tree_iteratorIiS4_lEE, symObjAddr: 0x18520, symBinAddr: 0x100018D9C, symSize: 0x34 }
  - { offsetInCU: 0x30384, offset: 0x30384, size: 0x8, addend: 0x0, symName: __ZNSt3__121__tree_const_iteratorIiPNS_11__tree_nodeIiPvEElEC2B8ue170006ENS_15__tree_iteratorIiS4_lEE, symObjAddr: 0x18554, symBinAddr: 0x100018DD0, symSize: 0x20 }
  - { offsetInCU: 0x303BD, offset: 0x303BD, size: 0x8, addend: 0x0, symName: __Z9verifyBSTIiiEN7testing15AssertionResultER16BinarySearchTreeIT_T0_E, symObjAddr: 0x18574, symBinAddr: 0x100018DF0, symSize: 0x134 }
  - { offsetInCU: 0x3040A, offset: 0x3040A, size: 0x8, addend: 0x0, symName: __Z15checkAVLBalanceIiiEN7testing15AssertionResultER7AVLTreeIT_T0_E, symObjAddr: 0x186A8, symBinAddr: 0x100018F24, symSize: 0xC8 }
  - { offsetInCU: 0x30448, offset: 0x30448, size: 0x8, addend: 0x0, symName: __ZNK16BinarySearchTreeIiiE5printEv, symObjAddr: 0x18770, symBinAddr: 0x100018FEC, symSize: 0x44 }
  - { offsetInCU: 0x30470, offset: 0x30470, size: 0x8, addend: 0x0, symName: __Z11isValidTreeIiiEN7testing15AssertionResultER16BinarySearchTreeIT_T0_E, symObjAddr: 0x187B4, symBinAddr: 0x100019030, symSize: 0x5C }
  - { offsetInCU: 0x304AE, offset: 0x304AE, size: 0x8, addend: 0x0, symName: __Z19checkValidTraversalIiiEN7testing15AssertionResultEP4NodeIT_T0_E, symObjAddr: 0x18810, symBinAddr: 0x10001908C, symSize: 0x708 }
  - { offsetInCU: 0x30528, offset: 0x30528, size: 0x8, addend: 0x0, symName: __Z25verifyAVLBalanceRecursiveIiiENSt3__14pairIiN7testing15AssertionResultEEER7AVLTreeIT_T0_EP7AVLNodeIS6_S7_E, symObjAddr: 0x18F18, symBinAddr: 0x100019794, symSize: 0x398 }
  - { offsetInCU: 0x305B3, offset: 0x305B3, size: 0x8, addend: 0x0, symName: __ZNSt3__16__treeIiNS_4lessIiEENS_9allocatorIiEEE5beginB8ue170006Ev, symObjAddr: 0x192B0, symBinAddr: 0x100019B2C, symSize: 0x34 }
  - { offsetInCU: 0x305D9, offset: 0x305D9, size: 0x8, addend: 0x0, symName: __ZNSt3__115__tree_iteratorIiPNS_11__tree_nodeIiPvEElEC1B8ue170006EPNS_15__tree_end_nodeIPNS_16__tree_node_baseIS2_EEEE, symObjAddr: 0x192E4, symBinAddr: 0x100019B60, symSize: 0x34 }
  - { offsetInCU: 0x30612, offset: 0x30612, size: 0x8, addend: 0x0, symName: __ZNSt3__115__tree_iteratorIiPNS_11__tree_nodeIiPvEElEC2B8ue170006EPNS_15__tree_end_nodeIPNS_16__tree_node_baseIS2_EEEE, symObjAddr: 0x19318, symBinAddr: 0x100019B94, symSize: 0x20 }
  - { offsetInCU: 0x3064B, offset: 0x3064B, size: 0x8, addend: 0x0, symName: __ZNSt3__16__treeIiNS_4lessIiEENS_9allocatorIiEEE3endB8ue170006Ev, symObjAddr: 0x19338, symBinAddr: 0x100019BB4, symSize: 0x34 }
  - { offsetInCU: 0x30671, offset: 0x30671, size: 0x8, addend: 0x0, symName: __ZNSt3__121__tree_const_iteratorIiPNS_11__tree_nodeIiPvEElEppB8ue170006Ev, symObjAddr: 0x1939C, symBinAddr: 0x100019C18, symSize: 0x38 }
  - { offsetInCU: 0x30697, offset: 0x30697, size: 0x8, addend: 0x0, symName: __ZNKSt3__121__tree_const_iteratorIiPNS_11__tree_nodeIiPvEElE8__get_npB8ue170006Ev, symObjAddr: 0x193D4, symBinAddr: 0x100019C50, symSize: 0x18 }
  - { offsetInCU: 0x306BD, offset: 0x306BD, size: 0x8, addend: 0x0, symName: __ZN7testing8internal19FormatForComparisonIiiE6FormatERKi, symObjAddr: 0x19568, symBinAddr: 0x100019DE4, symSize: 0x2C }
  - { offsetInCU: 0x306E1, offset: 0x306E1, size: 0x8, addend: 0x0, symName: __ZN7testing8internal21UniversalTersePrinterIiE5PrintERKiPNSt3__113basic_ostreamIcNS5_11char_traitsIcEEEE, symObjAddr: 0x1965C, symBinAddr: 0x100019ED8, symSize: 0x2C }
  - { offsetInCU: 0x30714, offset: 0x30714, size: 0x8, addend: 0x0, symName: __ZN7testing8internal16UniversalPrinterIiE5PrintERKiPNSt3__113basic_ostreamIcNS5_11char_traitsIcEEEE, symObjAddr: 0x196B4, symBinAddr: 0x100019F30, symSize: 0x2C }
  - { offsetInCU: 0x30747, offset: 0x30747, size: 0x8, addend: 0x0, symName: __ZN7testing8internal52internal_stream_operator_without_lexical_name_lookup13StreamPrinter10PrintValueIivEEDTcvvlsdefp0_fp_ERKT_PNSt3__113basic_ostreamIcNS8_11char_traitsIcEEEE, symObjAddr: 0x19738, symBinAddr: 0x100019FB4, symSize: 0x30 }
  - { offsetInCU: 0x30782, offset: 0x30782, size: 0x8, addend: 0x0, symName: __ZN7AVLTreeIiiE9removeFixEP7AVLNodeIiiE, symObjAddr: 0x19768, symBinAddr: 0x100019FE4, symSize: 0x48C }
  - { offsetInCU: 0x30821, offset: 0x30821, size: 0x8, addend: 0x0, symName: __ZN7testing15AssertionResultC2IbEERKT_PNSt3__19enable_ifIXntsr3std14is_convertibleIS2_S0_EE5valueEvE4typeE, symObjAddr: 0x19BF4, symBinAddr: 0x10001A470, symSize: 0x48 }
  - { offsetInCU: 0x3086D, offset: 0x3086D, size: 0x8, addend: 0x0, symName: __ZNSt3__110unique_ptrINS_12basic_stringIcNS_11char_traitsIcEENS_9allocatorIcEEEENS_14default_deleteIS6_EEEC1B8ue170006ILb1EvEEv, symObjAddr: 0x19C3C, symBinAddr: 0x10001A4B8, symSize: 0x2C }
  - { offsetInCU: 0x308A2, offset: 0x308A2, size: 0x8, addend: 0x0, symName: __ZNSt3__110unique_ptrINS_12basic_stringIcNS_11char_traitsIcEENS_9allocatorIcEEEENS_14default_deleteIS6_EEEC2B8ue170006ILb1EvEEv, symObjAddr: 0x19C68, symBinAddr: 0x10001A4E4, symSize: 0x3C }
  - { offsetInCU: 0x308D7, offset: 0x308D7, size: 0x8, addend: 0x0, symName: __ZNSt3__117__compressed_pairIPNS_12basic_stringIcNS_11char_traitsIcEENS_9allocatorIcEEEENS_14default_deleteIS6_EEEC1B8ue170006INS_16__value_init_tagESC_EEOT_OT0_, symObjAddr: 0x19CA4, symBinAddr: 0x10001A520, symSize: 0x3C }
  - { offsetInCU: 0x3092F, offset: 0x3092F, size: 0x8, addend: 0x0, symName: __ZNSt3__117__compressed_pairIPNS_12basic_stringIcNS_11char_traitsIcEENS_9allocatorIcEEEENS_14default_deleteIS6_EEEC2B8ue170006INS_16__value_init_tagESC_EEOT_OT0_, symObjAddr: 0x19CE0, symBinAddr: 0x10001A55C, symSize: 0x3C }
  - { offsetInCU: 0x30987, offset: 0x30987, size: 0x8, addend: 0x0, symName: __ZNSt3__122__compressed_pair_elemIPNS_12basic_stringIcNS_11char_traitsIcEENS_9allocatorIcEEEELi0ELb0EEC2B8ue170006ENS_16__value_init_tagE, symObjAddr: 0x19D1C, symBinAddr: 0x10001A598, symSize: 0x18 }
...
